ARM GAS  C:\Users\ADMINI~1\AppData\Local\Temp\cc6xb3Hf.s 			page 1


   1              		.cpu cortex-m3
   2              		.eabi_attribute 20, 1
   3              		.eabi_attribute 21, 1
   4              		.eabi_attribute 23, 3
   5              		.eabi_attribute 24, 1
   6              		.eabi_attribute 25, 1
   7              		.eabi_attribute 26, 1
   8              		.eabi_attribute 30, 1
   9              		.eabi_attribute 34, 1
  10              		.eabi_attribute 18, 4
  11              		.file	"MyOLED.c"
  12              		.text
  13              	.Ltext0:
  14              		.cfi_sections	.debug_frame
  15              		.section	.text.SetRESPin,"ax",%progbits
  16              		.align	1
  17              		.global	SetRESPin
  18              		.syntax unified
  19              		.thumb
  20              		.thumb_func
  21              		.fpu softvfp
  23              	SetRESPin:
  24              	.LFB66:
  25              		.file 1 "Src/MyOLED.c"
   1:Src/MyOLED.c  **** 
   2:Src/MyOLED.c  **** #include "MyOLED.h"
   3:Src/MyOLED.c  **** #include <math.h>
   4:Src/MyOLED.c  **** #include <string.h>
   5:Src/MyOLED.c  **** #include <stdio.h>
   6:Src/MyOLED.c  **** #include <stdlib.h>
   7:Src/MyOLED.c  **** #include <stdint.h>
   8:Src/MyOLED.c  **** #include "stm32f1xx_hal.h"
   9:Src/MyOLED.c  **** 
  10:Src/MyOLED.c  **** char NumToBigCharStr[16] = {48, 49, 50, 51, 52, 53, 54, 55, 56, 57, 65, 66, 67, 68, 69, 70};
  11:Src/MyOLED.c  **** char NumToSmallCharStr[16] = {48, 49, 50, 51, 52, 53, 54, 55, 56, 57, 96, 97, 98, 99, 100, 101};
  12:Src/MyOLED.c  **** const unsigned char NumF3x5[][3] ={
  13:Src/MyOLED.c  ****   { 0x1f, 0x11, 0x1f},   // 0
  14:Src/MyOLED.c  ****   { 0x02, 0x1f, 0x00},   // 1
  15:Src/MyOLED.c  ****   { 0x1d, 0x15, 0x17},   // 2
  16:Src/MyOLED.c  ****   { 0x15, 0x15, 0x1f},   // 3
  17:Src/MyOLED.c  ****   { 0x07, 0x04, 0x1f},   // 4
  18:Src/MyOLED.c  ****   { 0x17, 0x15, 0x1d},   // 5
  19:Src/MyOLED.c  ****   { 0x1f, 0x15, 0x1d},   // 6
  20:Src/MyOLED.c  ****   { 0x03, 0x01, 0x1f},   // 7
  21:Src/MyOLED.c  ****   { 0x1f, 0x15, 0x1f},   // 8
  22:Src/MyOLED.c  ****   { 0x17, 0x15, 0x1f},   // 9
  23:Src/MyOLED.c  ****   { 0x1f, 0x05, 0x1f},   // A
  24:Src/MyOLED.c  ****   { 0x1f, 0x15, 0x1e},   // B
  25:Src/MyOLED.c  ****   { 0x1f, 0x11, 0x11},   // C
  26:Src/MyOLED.c  ****   { 0x1f, 0x11, 0x0e},   // D
  27:Src/MyOLED.c  ****   { 0x1f, 0x15, 0x15},   // E
  28:Src/MyOLED.c  ****   { 0x1f, 0x05, 0x05},   // F
  29:Src/MyOLED.c  **** };
  30:Src/MyOLED.c  **** 
  31:Src/MyOLED.c  **** const unsigned char F6x8[][6] ={
  32:Src/MyOLED.c  ****   { 0x00, 0x00, 0x00, 0x00, 0x00, 0x00 },   // sp
  33:Src/MyOLED.c  ****   { 0x00, 0x00, 0x00, 0x2f, 0x00, 0x00 },   // !
ARM GAS  C:\Users\ADMINI~1\AppData\Local\Temp\cc6xb3Hf.s 			page 2


  34:Src/MyOLED.c  ****   { 0x00, 0x00, 0x07, 0x00, 0x07, 0x00 },   // "
  35:Src/MyOLED.c  ****   { 0x00, 0x14, 0x7f, 0x14, 0x7f, 0x14 },   // #
  36:Src/MyOLED.c  ****   { 0x00, 0x24, 0x2a, 0x7f, 0x2a, 0x12 },   // $
  37:Src/MyOLED.c  ****   { 0x00, 0x62, 0x64, 0x08, 0x13, 0x23 },   // %
  38:Src/MyOLED.c  ****   { 0x00, 0x36, 0x49, 0x55, 0x22, 0x50 },   // &
  39:Src/MyOLED.c  ****   { 0x00, 0x00, 0x05, 0x03, 0x00, 0x00 },   // '
  40:Src/MyOLED.c  ****   { 0x00, 0x00, 0x1c, 0x22, 0x41, 0x00 },   // (
  41:Src/MyOLED.c  ****   { 0x00, 0x00, 0x41, 0x22, 0x1c, 0x00 },   // )
  42:Src/MyOLED.c  ****   { 0x00, 0x14, 0x08, 0x3E, 0x08, 0x14 },   // *
  43:Src/MyOLED.c  ****   { 0x00, 0x08, 0x08, 0x3E, 0x08, 0x08 },   // +
  44:Src/MyOLED.c  ****   { 0x00, 0x00, 0x00, 0xA0, 0x60, 0x00 },   // ,
  45:Src/MyOLED.c  ****   { 0x00, 0x08, 0x08, 0x08, 0x08, 0x08 },   // -
  46:Src/MyOLED.c  ****   { 0x00, 0x00, 0x60, 0x60, 0x00, 0x00 },   // .
  47:Src/MyOLED.c  ****   { 0x00, 0x20, 0x10, 0x08, 0x04, 0x02 },   // /
  48:Src/MyOLED.c  ****   { 0x00, 0x3E, 0x51, 0x49, 0x45, 0x3E },   // 0
  49:Src/MyOLED.c  ****   { 0x00, 0x00, 0x42, 0x7F, 0x40, 0x00 },   // 1
  50:Src/MyOLED.c  ****   { 0x00, 0x42, 0x61, 0x51, 0x49, 0x46 },   // 2
  51:Src/MyOLED.c  ****   { 0x00, 0x21, 0x41, 0x45, 0x4B, 0x31 },   // 3
  52:Src/MyOLED.c  ****   { 0x00, 0x18, 0x14, 0x12, 0x7F, 0x10 },   // 4
  53:Src/MyOLED.c  ****   { 0x00, 0x27, 0x45, 0x45, 0x45, 0x39 },   // 5
  54:Src/MyOLED.c  ****   { 0x00, 0x3C, 0x4A, 0x49, 0x49, 0x30 },   // 6
  55:Src/MyOLED.c  ****   { 0x00, 0x01, 0x71, 0x09, 0x05, 0x03 },   // 7
  56:Src/MyOLED.c  ****   { 0x00, 0x36, 0x49, 0x49, 0x49, 0x36 },   // 8
  57:Src/MyOLED.c  ****   { 0x00, 0x06, 0x49, 0x49, 0x29, 0x1E },   // 9
  58:Src/MyOLED.c  ****   { 0x00, 0x00, 0x36, 0x36, 0x00, 0x00 },   // :
  59:Src/MyOLED.c  ****   { 0x00, 0x00, 0x56, 0x36, 0x00, 0x00 },   // ;
  60:Src/MyOLED.c  ****   { 0x00, 0x08, 0x14, 0x22, 0x41, 0x00 },   // <
  61:Src/MyOLED.c  ****   { 0x00, 0x14, 0x14, 0x14, 0x14, 0x14 },   // =
  62:Src/MyOLED.c  ****   { 0x00, 0x00, 0x41, 0x22, 0x14, 0x08 },   // >
  63:Src/MyOLED.c  ****   { 0x00, 0x02, 0x01, 0x51, 0x09, 0x06 },   // ?
  64:Src/MyOLED.c  ****   { 0x00, 0x32, 0x49, 0x59, 0x51, 0x3E },   // @
  65:Src/MyOLED.c  ****   { 0x00, 0x7C, 0x12, 0x11, 0x12, 0x7C },   // A
  66:Src/MyOLED.c  ****   { 0x00, 0x7F, 0x49, 0x49, 0x49, 0x36 },   // B
  67:Src/MyOLED.c  ****   { 0x00, 0x3E, 0x41, 0x41, 0x41, 0x22 },   // C
  68:Src/MyOLED.c  ****   { 0x00, 0x7F, 0x41, 0x41, 0x22, 0x1C },   // D
  69:Src/MyOLED.c  ****   { 0x00, 0x7F, 0x49, 0x49, 0x49, 0x41 },   // E
  70:Src/MyOLED.c  ****   { 0x00, 0x7F, 0x09, 0x09, 0x09, 0x01 },   // F
  71:Src/MyOLED.c  ****   { 0x00, 0x3E, 0x41, 0x49, 0x49, 0x7A },   // G
  72:Src/MyOLED.c  ****   { 0x00, 0x7F, 0x08, 0x08, 0x08, 0x7F },   // H
  73:Src/MyOLED.c  ****   { 0x00, 0x00, 0x41, 0x7F, 0x41, 0x00 },   // I
  74:Src/MyOLED.c  ****   { 0x00, 0x20, 0x40, 0x41, 0x3F, 0x01 },   // J
  75:Src/MyOLED.c  ****   { 0x00, 0x7F, 0x08, 0x14, 0x22, 0x41 },   // K
  76:Src/MyOLED.c  ****   { 0x00, 0x7F, 0x40, 0x40, 0x40, 0x40 },   // L
  77:Src/MyOLED.c  ****   { 0x00, 0x7F, 0x02, 0x0C, 0x02, 0x7F },   // M
  78:Src/MyOLED.c  ****   { 0x00, 0x7F, 0x04, 0x08, 0x10, 0x7F },   // N
  79:Src/MyOLED.c  ****   { 0x00, 0x3E, 0x41, 0x41, 0x41, 0x3E },   // O
  80:Src/MyOLED.c  ****   { 0x00, 0x7F, 0x09, 0x09, 0x09, 0x06 },   // P
  81:Src/MyOLED.c  ****   { 0x00, 0x3E, 0x41, 0x51, 0x21, 0x5E },   // Q
  82:Src/MyOLED.c  ****   { 0x00, 0x7F, 0x09, 0x19, 0x29, 0x46 },   // R
  83:Src/MyOLED.c  ****   { 0x00, 0x46, 0x49, 0x49, 0x49, 0x31 },   // S
  84:Src/MyOLED.c  ****   { 0x00, 0x01, 0x01, 0x7F, 0x01, 0x01 },   // T
  85:Src/MyOLED.c  ****   { 0x00, 0x3F, 0x40, 0x40, 0x40, 0x3F },   // U
  86:Src/MyOLED.c  ****   { 0x00, 0x1F, 0x20, 0x40, 0x20, 0x1F },   // V
  87:Src/MyOLED.c  ****   { 0x00, 0x3F, 0x40, 0x38, 0x40, 0x3F },   // W
  88:Src/MyOLED.c  ****   { 0x00, 0x63, 0x14, 0x08, 0x14, 0x63 },   // X
  89:Src/MyOLED.c  ****   { 0x00, 0x07, 0x08, 0x70, 0x08, 0x07 },   // Y
  90:Src/MyOLED.c  ****   { 0x00, 0x61, 0x51, 0x49, 0x45, 0x43 },   // Z
ARM GAS  C:\Users\ADMINI~1\AppData\Local\Temp\cc6xb3Hf.s 			page 3


  91:Src/MyOLED.c  ****   { 0x00, 0x00, 0x7F, 0x41, 0x41, 0x00 },   // [ 91
  92:Src/MyOLED.c  ****   { 0x00, 0x02, 0x04 , 0x08, 0x10, 0x20 },   // \92
  93:Src/MyOLED.c  ****   { 0x00, 0x00, 0x41, 0x41, 0x7F, 0x00 },   // ]
  94:Src/MyOLED.c  ****   { 0x00, 0x04, 0x02, 0x01, 0x02, 0x04 },   // ^
  95:Src/MyOLED.c  ****   { 0x00, 0x40, 0x40, 0x40, 0x40, 0x40 },   // _
  96:Src/MyOLED.c  ****   { 0x00, 0x00, 0x01, 0x02, 0x04, 0x00 },   // '
  97:Src/MyOLED.c  ****   { 0x00, 0x20, 0x54, 0x54, 0x54, 0x78 },   // a
  98:Src/MyOLED.c  ****   { 0x00, 0x7F, 0x48, 0x44, 0x44, 0x38 },   // b
  99:Src/MyOLED.c  ****   { 0x00, 0x38, 0x44, 0x44, 0x44, 0x20 },   // c
 100:Src/MyOLED.c  ****   { 0x00, 0x38, 0x44, 0x44, 0x48, 0x7F },   // d
 101:Src/MyOLED.c  ****   { 0x00, 0x38, 0x54, 0x54, 0x54, 0x18 },   // e
 102:Src/MyOLED.c  ****   { 0x00, 0x08, 0x7E, 0x09, 0x01, 0x02 },   // f
 103:Src/MyOLED.c  ****   { 0x00, 0x18, 0xA4, 0xA4, 0xA4, 0x7C },   // g
 104:Src/MyOLED.c  ****   { 0x00, 0x7F, 0x08, 0x04, 0x04, 0x78 },   // h
 105:Src/MyOLED.c  ****   { 0x00, 0x00, 0x44, 0x7D, 0x40, 0x00 },   // i
 106:Src/MyOLED.c  ****   { 0x00, 0x40, 0x80, 0x84, 0x7D, 0x00 },   // j
 107:Src/MyOLED.c  ****   { 0x00, 0x7F, 0x10, 0x28, 0x44, 0x00 },   // k
 108:Src/MyOLED.c  ****   { 0x00, 0x00, 0x41, 0x7F, 0x40, 0x00 },   // l
 109:Src/MyOLED.c  ****   { 0x00, 0x7C, 0x04, 0x18, 0x04, 0x78 },   // m
 110:Src/MyOLED.c  ****   { 0x00, 0x7C, 0x08, 0x04, 0x04, 0x78 },   // n
 111:Src/MyOLED.c  ****   { 0x00, 0x38, 0x44, 0x44, 0x44, 0x38 },   // o
 112:Src/MyOLED.c  ****   { 0x00, 0xFC, 0x24, 0x24, 0x24, 0x18 },   // p
 113:Src/MyOLED.c  ****   { 0x00, 0x18, 0x24, 0x24, 0x18, 0xFC },   // q
 114:Src/MyOLED.c  ****   { 0x00, 0x7C, 0x08, 0x04, 0x04, 0x08 },   // r
 115:Src/MyOLED.c  ****   { 0x00, 0x48, 0x54, 0x54, 0x54, 0x20 },   // s
 116:Src/MyOLED.c  ****   { 0x00, 0x04, 0x3F, 0x44, 0x40, 0x20 },   // t
 117:Src/MyOLED.c  ****   { 0x00, 0x3C, 0x40, 0x40, 0x20, 0x7C },   // u
 118:Src/MyOLED.c  ****   { 0x00, 0x1C, 0x20, 0x40, 0x20, 0x1C },   // v
 119:Src/MyOLED.c  ****   { 0x00, 0x3C, 0x40, 0x30, 0x40, 0x3C },   // w
 120:Src/MyOLED.c  ****   { 0x00, 0x44, 0x28, 0x10, 0x28, 0x44 },   // x
 121:Src/MyOLED.c  ****   { 0x00, 0x1C, 0xA0, 0xA0, 0xA0, 0x7C },   // y
 122:Src/MyOLED.c  ****   { 0x00, 0x44, 0x64, 0x54, 0x4C, 0x44 },   // z
 123:Src/MyOLED.c  ****   { 0x14, 0x14, 0x14, 0x14, 0x14, 0x14 }    // horiz lines
 124:Src/MyOLED.c  **** };
 125:Src/MyOLED.c  **** 
 126:Src/MyOLED.c  **** 
 127:Src/MyOLED.c  **** 
 128:Src/MyOLED.c  **** const unsigned char F8X16[] ={
 129:Src/MyOLED.c  ****   0x00, 0x00, 0x00, 0x00, 0x00, 0x00, 0x00, 0x00, 0x00, 0x00, 0x00, 0x00, 0x00, 0x00, 0x00, 0x00, /
 130:Src/MyOLED.c  ****   0x00, 0x00, 0x00, 0xF8, 0x00, 0x00, 0x00, 0x00, 0x00, 0x00, 0x00, 0x33, 0x30, 0x00, 0x00, 0x00, /
 131:Src/MyOLED.c  ****   0x00, 0x10, 0x0C, 0x06, 0x10, 0x0C, 0x06, 0x00, 0x00, 0x00, 0x00, 0x00, 0x00, 0x00, 0x00, 0x00, /
 132:Src/MyOLED.c  ****   0x40, 0xC0, 0x78, 0x40, 0xC0, 0x78, 0x40, 0x00, 0x04, 0x3F, 0x04, 0x04, 0x3F, 0x04, 0x04, 0x00, /
 133:Src/MyOLED.c  ****   0x00, 0x70, 0x88, 0xFC, 0x08, 0x30, 0x00, 0x00, 0x00, 0x18, 0x20, 0xFF, 0x21, 0x1E, 0x00, 0x00, /
 134:Src/MyOLED.c  ****   0xF0, 0x08, 0xF0, 0x00, 0xE0, 0x18, 0x00, 0x00, 0x00, 0x21, 0x1C, 0x03, 0x1E, 0x21, 0x1E, 0x00, /
 135:Src/MyOLED.c  ****   0x00, 0xF0, 0x08, 0x88, 0x70, 0x00, 0x00, 0x00, 0x1E, 0x21, 0x23, 0x24, 0x19, 0x27, 0x21, 0x10, /
 136:Src/MyOLED.c  ****   0x10, 0x16, 0x0E, 0x00, 0x00, 0x00, 0x00, 0x00, 0x00, 0x00, 0x00, 0x00, 0x00, 0x00, 0x00, 0x00, /
 137:Src/MyOLED.c  ****   0x00, 0x00, 0x00, 0xE0, 0x18, 0x04, 0x02, 0x00, 0x00, 0x00, 0x00, 0x07, 0x18, 0x20, 0x40, 0x00, /
 138:Src/MyOLED.c  ****   0x00, 0x02, 0x04, 0x18, 0xE0, 0x00, 0x00, 0x00, 0x00, 0x40, 0x20, 0x18, 0x07, 0x00, 0x00, 0x00, /
 139:Src/MyOLED.c  ****   0x40, 0x40, 0x80, 0xF0, 0x80, 0x40, 0x40, 0x00, 0x02, 0x02, 0x01, 0x0F, 0x01, 0x02, 0x02, 0x00, /
 140:Src/MyOLED.c  ****   0x00, 0x00, 0x00, 0xF0, 0x00, 0x00, 0x00, 0x00, 0x01, 0x01, 0x01, 0x1F, 0x01, 0x01, 0x01, 0x00, /
 141:Src/MyOLED.c  ****   0x00, 0x00, 0x00, 0x00, 0x00, 0x00, 0x00, 0x00, 0x80, 0xB0, 0x70, 0x00, 0x00, 0x00, 0x00, 0x00, /
 142:Src/MyOLED.c  ****   0x00, 0x00, 0x00, 0x00, 0x00, 0x00, 0x00, 0x00, 0x00, 0x01, 0x01, 0x01, 0x01, 0x01, 0x01, 0x01, /
 143:Src/MyOLED.c  ****   0x00, 0x00, 0x00, 0x00, 0x00, 0x00, 0x00, 0x00, 0x00, 0x30, 0x30, 0x00, 0x00, 0x00, 0x00, 0x00, /
 144:Src/MyOLED.c  ****   0x00, 0x00, 0x00, 0x00, 0x80, 0x60, 0x18, 0x04, 0x00, 0x60, 0x18, 0x06, 0x01, 0x00, 0x00, 0x00, /
 145:Src/MyOLED.c  ****   0x00, 0xE0, 0x10, 0x08, 0x08, 0x10, 0xE0, 0x00, 0x00, 0x0F, 0x10, 0x20, 0x20, 0x10, 0x0F, 0x00, /
 146:Src/MyOLED.c  ****   0x00, 0x10, 0x10, 0xF8, 0x00, 0x00, 0x00, 0x00, 0x00, 0x20, 0x20, 0x3F, 0x20, 0x20, 0x00, 0x00, /
 147:Src/MyOLED.c  ****   0x00, 0x70, 0x08, 0x08, 0x08, 0x88, 0x70, 0x00, 0x00, 0x30, 0x28, 0x24, 0x22, 0x21, 0x30, 0x00, /
ARM GAS  C:\Users\ADMINI~1\AppData\Local\Temp\cc6xb3Hf.s 			page 4


 148:Src/MyOLED.c  ****   0x00, 0x30, 0x08, 0x88, 0x88, 0x48, 0x30, 0x00, 0x00, 0x18, 0x20, 0x20, 0x20, 0x11, 0x0E, 0x00, /
 149:Src/MyOLED.c  ****   0x00, 0x00, 0xC0, 0x20, 0x10, 0xF8, 0x00, 0x00, 0x00, 0x07, 0x04, 0x24, 0x24, 0x3F, 0x24, 0x00, /
 150:Src/MyOLED.c  ****   0x00, 0xF8, 0x08, 0x88, 0x88, 0x08, 0x08, 0x00, 0x00, 0x19, 0x21, 0x20, 0x20, 0x11, 0x0E, 0x00, /
 151:Src/MyOLED.c  ****   0x00, 0xE0, 0x10, 0x88, 0x88, 0x18, 0x00, 0x00, 0x00, 0x0F, 0x11, 0x20, 0x20, 0x11, 0x0E, 0x00, /
 152:Src/MyOLED.c  ****   0x00, 0x38, 0x08, 0x08, 0xC8, 0x38, 0x08, 0x00, 0x00, 0x00, 0x00, 0x3F, 0x00, 0x00, 0x00, 0x00, /
 153:Src/MyOLED.c  ****   0x00, 0x70, 0x88, 0x08, 0x08, 0x88, 0x70, 0x00, 0x00, 0x1C, 0x22, 0x21, 0x21, 0x22, 0x1C, 0x00, /
 154:Src/MyOLED.c  ****   0x00, 0xE0, 0x10, 0x08, 0x08, 0x10, 0xE0, 0x00, 0x00, 0x00, 0x31, 0x22, 0x22, 0x11, 0x0F, 0x00, /
 155:Src/MyOLED.c  ****   0x00, 0x00, 0x00, 0xC0, 0xC0, 0x00, 0x00, 0x00, 0x00, 0x00, 0x00, 0x30, 0x30, 0x00, 0x00, 0x00, /
 156:Src/MyOLED.c  ****   0x00, 0x00, 0x00, 0x80, 0x00, 0x00, 0x00, 0x00, 0x00, 0x00, 0x80, 0x60, 0x00, 0x00, 0x00, 0x00, /
 157:Src/MyOLED.c  ****   0x00, 0x00, 0x80, 0x40, 0x20, 0x10, 0x08, 0x00, 0x00, 0x01, 0x02, 0x04, 0x08, 0x10, 0x20, 0x00, /
 158:Src/MyOLED.c  ****   0x40, 0x40, 0x40, 0x40, 0x40, 0x40, 0x40, 0x00, 0x04, 0x04, 0x04, 0x04, 0x04, 0x04, 0x04, 0x00, /
 159:Src/MyOLED.c  ****   0x00, 0x08, 0x10, 0x20, 0x40, 0x80, 0x00, 0x00, 0x00, 0x20, 0x10, 0x08, 0x04, 0x02, 0x01, 0x00, /
 160:Src/MyOLED.c  ****   0x00, 0x70, 0x48, 0x08, 0x08, 0x08, 0xF0, 0x00, 0x00, 0x00, 0x00, 0x30, 0x36, 0x01, 0x00, 0x00, /
 161:Src/MyOLED.c  ****   0xC0, 0x30, 0xC8, 0x28, 0xE8, 0x10, 0xE0, 0x00, 0x07, 0x18, 0x27, 0x24, 0x23, 0x14, 0x0B, 0x00, /
 162:Src/MyOLED.c  ****   0x00, 0x00, 0xC0, 0x38, 0xE0, 0x00, 0x00, 0x00, 0x20, 0x3C, 0x23, 0x02, 0x02, 0x27, 0x38, 0x20, /
 163:Src/MyOLED.c  ****   0x08, 0xF8, 0x88, 0x88, 0x88, 0x70, 0x00, 0x00, 0x20, 0x3F, 0x20, 0x20, 0x20, 0x11, 0x0E, 0x00, /
 164:Src/MyOLED.c  ****   0xC0, 0x30, 0x08, 0x08, 0x08, 0x08, 0x38, 0x00, 0x07, 0x18, 0x20, 0x20, 0x20, 0x10, 0x08, 0x00, /
 165:Src/MyOLED.c  ****   0x08, 0xF8, 0x08, 0x08, 0x08, 0x10, 0xE0, 0x00, 0x20, 0x3F, 0x20, 0x20, 0x20, 0x10, 0x0F, 0x00, /
 166:Src/MyOLED.c  ****   0x08, 0xF8, 0x88, 0x88, 0xE8, 0x08, 0x10, 0x00, 0x20, 0x3F, 0x20, 0x20, 0x23, 0x20, 0x18, 0x00, /
 167:Src/MyOLED.c  ****   0x08, 0xF8, 0x88, 0x88, 0xE8, 0x08, 0x10, 0x00, 0x20, 0x3F, 0x20, 0x00, 0x03, 0x00, 0x00, 0x00, /
 168:Src/MyOLED.c  ****   0xC0, 0x30, 0x08, 0x08, 0x08, 0x38, 0x00, 0x00, 0x07, 0x18, 0x20, 0x20, 0x22, 0x1E, 0x02, 0x00, /
 169:Src/MyOLED.c  ****   0x08, 0xF8, 0x08, 0x00, 0x00, 0x08, 0xF8, 0x08, 0x20, 0x3F, 0x21, 0x01, 0x01, 0x21, 0x3F, 0x20, /
 170:Src/MyOLED.c  ****   0x00, 0x08, 0x08, 0xF8, 0x08, 0x08, 0x00, 0x00, 0x00, 0x20, 0x20, 0x3F, 0x20, 0x20, 0x00, 0x00, /
 171:Src/MyOLED.c  ****   0x00, 0x00, 0x08, 0x08, 0xF8, 0x08, 0x08, 0x00, 0xC0, 0x80, 0x80, 0x80, 0x7F, 0x00, 0x00, 0x00, /
 172:Src/MyOLED.c  ****   0x08, 0xF8, 0x88, 0xC0, 0x28, 0x18, 0x08, 0x00, 0x20, 0x3F, 0x20, 0x01, 0x26, 0x38, 0x20, 0x00, /
 173:Src/MyOLED.c  ****   0x08, 0xF8, 0x08, 0x00, 0x00, 0x00, 0x00, 0x00, 0x20, 0x3F, 0x20, 0x20, 0x20, 0x20, 0x30, 0x00, /
 174:Src/MyOLED.c  ****   0x08, 0xF8, 0xF8, 0x00, 0xF8, 0xF8, 0x08, 0x00, 0x20, 0x3F, 0x00, 0x3F, 0x00, 0x3F, 0x20, 0x00, /
 175:Src/MyOLED.c  ****   0x08, 0xF8, 0x30, 0xC0, 0x00, 0x08, 0xF8, 0x08, 0x20, 0x3F, 0x20, 0x00, 0x07, 0x18, 0x3F, 0x00, /
 176:Src/MyOLED.c  ****   0xE0, 0x10, 0x08, 0x08, 0x08, 0x10, 0xE0, 0x00, 0x0F, 0x10, 0x20, 0x20, 0x20, 0x10, 0x0F, 0x00, /
 177:Src/MyOLED.c  ****   0x08, 0xF8, 0x08, 0x08, 0x08, 0x08, 0xF0, 0x00, 0x20, 0x3F, 0x21, 0x01, 0x01, 0x01, 0x00, 0x00, /
 178:Src/MyOLED.c  ****   0xE0, 0x10, 0x08, 0x08, 0x08, 0x10, 0xE0, 0x00, 0x0F, 0x18, 0x24, 0x24, 0x38, 0x50, 0x4F, 0x00, /
 179:Src/MyOLED.c  ****   0x08, 0xF8, 0x88, 0x88, 0x88, 0x88, 0x70, 0x00, 0x20, 0x3F, 0x20, 0x00, 0x03, 0x0C, 0x30, 0x20, /
 180:Src/MyOLED.c  ****   0x00, 0x70, 0x88, 0x08, 0x08, 0x08, 0x38, 0x00, 0x00, 0x38, 0x20, 0x21, 0x21, 0x22, 0x1C, 0x00, /
 181:Src/MyOLED.c  ****   0x18, 0x08, 0x08, 0xF8, 0x08, 0x08, 0x18, 0x00, 0x00, 0x00, 0x20, 0x3F, 0x20, 0x00, 0x00, 0x00, /
 182:Src/MyOLED.c  ****   0x08, 0xF8, 0x08, 0x00, 0x00, 0x08, 0xF8, 0x08, 0x00, 0x1F, 0x20, 0x20, 0x20, 0x20, 0x1F, 0x00, /
 183:Src/MyOLED.c  ****   0x08, 0x78, 0x88, 0x00, 0x00, 0xC8, 0x38, 0x08, 0x00, 0x00, 0x07, 0x38, 0x0E, 0x01, 0x00, 0x00, /
 184:Src/MyOLED.c  ****   0xF8, 0x08, 0x00, 0xF8, 0x00, 0x08, 0xF8, 0x00, 0x03, 0x3C, 0x07, 0x00, 0x07, 0x3C, 0x03, 0x00, /
 185:Src/MyOLED.c  ****   0x08, 0x18, 0x68, 0x80, 0x80, 0x68, 0x18, 0x08, 0x20, 0x30, 0x2C, 0x03, 0x03, 0x2C, 0x30, 0x20, /
 186:Src/MyOLED.c  ****   0x08, 0x38, 0xC8, 0x00, 0xC8, 0x38, 0x08, 0x00, 0x00, 0x00, 0x20, 0x3F, 0x20, 0x00, 0x00, 0x00, /
 187:Src/MyOLED.c  ****   0x10, 0x08, 0x08, 0x08, 0xC8, 0x38, 0x08, 0x00, 0x20, 0x38, 0x26, 0x21, 0x20, 0x20, 0x18, 0x00, /
 188:Src/MyOLED.c  ****   0x00, 0x00, 0x00, 0xFE, 0x02, 0x02, 0x02, 0x00, 0x00, 0x00, 0x00, 0x7F, 0x40, 0x40, 0x40, 0x00, /
 189:Src/MyOLED.c  ****   0x00, 0x0C, 0x30, 0xC0, 0x00, 0x00, 0x00, 0x00, 0x00, 0x00, 0x00, 0x01, 0x06, 0x38, 0xC0, 0x00, /
 190:Src/MyOLED.c  ****   0x00, 0x02, 0x02, 0x02, 0xFE, 0x00, 0x00, 0x00, 0x00, 0x40, 0x40, 0x40, 0x7F, 0x00, 0x00, 0x00, /
 191:Src/MyOLED.c  ****   0x00, 0x00, 0x04, 0x02, 0x02, 0x02, 0x04, 0x00, 0x00, 0x00, 0x00, 0x00, 0x00, 0x00, 0x00, 0x00, /
 192:Src/MyOLED.c  ****   0x00, 0x00, 0x00, 0x00, 0x00, 0x00, 0x00, 0x00, 0x80, 0x80, 0x80, 0x80, 0x80, 0x80, 0x80, 0x80, /
 193:Src/MyOLED.c  ****   0x00, 0x02, 0x02, 0x04, 0x00, 0x00, 0x00, 0x00, 0x00, 0x00, 0x00, 0x00, 0x00, 0x00, 0x00, 0x00, /
 194:Src/MyOLED.c  ****   0x00, 0x00, 0x80, 0x80, 0x80, 0x80, 0x00, 0x00, 0x00, 0x19, 0x24, 0x22, 0x22, 0x22, 0x3F, 0x20, /
 195:Src/MyOLED.c  ****   0x08, 0xF8, 0x00, 0x80, 0x80, 0x00, 0x00, 0x00, 0x00, 0x3F, 0x11, 0x20, 0x20, 0x11, 0x0E, 0x00, /
 196:Src/MyOLED.c  ****   0x00, 0x00, 0x00, 0x80, 0x80, 0x80, 0x00, 0x00, 0x00, 0x0E, 0x11, 0x20, 0x20, 0x20, 0x11, 0x00, /
 197:Src/MyOLED.c  ****   0x00, 0x00, 0x00, 0x80, 0x80, 0x88, 0xF8, 0x00, 0x00, 0x0E, 0x11, 0x20, 0x20, 0x10, 0x3F, 0x20, /
 198:Src/MyOLED.c  ****   0x00, 0x00, 0x80, 0x80, 0x80, 0x80, 0x00, 0x00, 0x00, 0x1F, 0x22, 0x22, 0x22, 0x22, 0x13, 0x00, /
 199:Src/MyOLED.c  ****   0x00, 0x80, 0x80, 0xF0, 0x88, 0x88, 0x88, 0x18, 0x00, 0x20, 0x20, 0x3F, 0x20, 0x20, 0x00, 0x00, /
 200:Src/MyOLED.c  ****   0x00, 0x00, 0x80, 0x80, 0x80, 0x80, 0x80, 0x00, 0x00, 0x6B, 0x94, 0x94, 0x94, 0x93, 0x60, 0x00, /
 201:Src/MyOLED.c  ****   0x08, 0xF8, 0x00, 0x80, 0x80, 0x80, 0x00, 0x00, 0x20, 0x3F, 0x21, 0x00, 0x00, 0x20, 0x3F, 0x20, /
 202:Src/MyOLED.c  ****   0x00, 0x80, 0x98, 0x98, 0x00, 0x00, 0x00, 0x00, 0x00, 0x20, 0x20, 0x3F, 0x20, 0x20, 0x00, 0x00, /
 203:Src/MyOLED.c  ****   0x00, 0x00, 0x00, 0x80, 0x98, 0x98, 0x00, 0x00, 0x00, 0xC0, 0x80, 0x80, 0x80, 0x7F, 0x00, 0x00, /
 204:Src/MyOLED.c  ****   0x08, 0xF8, 0x00, 0x00, 0x80, 0x80, 0x80, 0x00, 0x20, 0x3F, 0x24, 0x02, 0x2D, 0x30, 0x20, 0x00, /
ARM GAS  C:\Users\ADMINI~1\AppData\Local\Temp\cc6xb3Hf.s 			page 5


 205:Src/MyOLED.c  ****   0x00, 0x08, 0x08, 0xF8, 0x00, 0x00, 0x00, 0x00, 0x00, 0x20, 0x20, 0x3F, 0x20, 0x20, 0x00, 0x00, /
 206:Src/MyOLED.c  ****   0x80, 0x80, 0x80, 0x80, 0x80, 0x80, 0x80, 0x00, 0x20, 0x3F, 0x20, 0x00, 0x3F, 0x20, 0x00, 0x3F, /
 207:Src/MyOLED.c  ****   0x80, 0x80, 0x00, 0x80, 0x80, 0x80, 0x00, 0x00, 0x20, 0x3F, 0x21, 0x00, 0x00, 0x20, 0x3F, 0x20, /
 208:Src/MyOLED.c  ****   0x00, 0x00, 0x80, 0x80, 0x80, 0x80, 0x00, 0x00, 0x00, 0x1F, 0x20, 0x20, 0x20, 0x20, 0x1F, 0x00, /
 209:Src/MyOLED.c  ****   0x80, 0x80, 0x00, 0x80, 0x80, 0x00, 0x00, 0x00, 0x80, 0xFF, 0xA1, 0x20, 0x20, 0x11, 0x0E, 0x00, /
 210:Src/MyOLED.c  ****   0x00, 0x00, 0x00, 0x80, 0x80, 0x80, 0x80, 0x00, 0x00, 0x0E, 0x11, 0x20, 0x20, 0xA0, 0xFF, 0x80, /
 211:Src/MyOLED.c  ****   0x80, 0x80, 0x80, 0x00, 0x80, 0x80, 0x80, 0x00, 0x20, 0x20, 0x3F, 0x21, 0x20, 0x00, 0x01, 0x00, /
 212:Src/MyOLED.c  ****   0x00, 0x00, 0x80, 0x80, 0x80, 0x80, 0x80, 0x00, 0x00, 0x33, 0x24, 0x24, 0x24, 0x24, 0x19, 0x00, /
 213:Src/MyOLED.c  ****   0x00, 0x80, 0x80, 0xE0, 0x80, 0x80, 0x00, 0x00, 0x00, 0x00, 0x00, 0x1F, 0x20, 0x20, 0x00, 0x00, /
 214:Src/MyOLED.c  ****   0x80, 0x80, 0x00, 0x00, 0x00, 0x80, 0x80, 0x00, 0x00, 0x1F, 0x20, 0x20, 0x20, 0x10, 0x3F, 0x20, /
 215:Src/MyOLED.c  ****   0x80, 0x80, 0x80, 0x00, 0x00, 0x80, 0x80, 0x80, 0x00, 0x01, 0x0E, 0x30, 0x08, 0x06, 0x01, 0x00, /
 216:Src/MyOLED.c  ****   0x80, 0x80, 0x00, 0x80, 0x00, 0x80, 0x80, 0x80, 0x0F, 0x30, 0x0C, 0x03, 0x0C, 0x30, 0x0F, 0x00, /
 217:Src/MyOLED.c  ****   0x00, 0x80, 0x80, 0x00, 0x80, 0x80, 0x80, 0x00, 0x00, 0x20, 0x31, 0x2E, 0x0E, 0x31, 0x20, 0x00, /
 218:Src/MyOLED.c  ****   0x80, 0x80, 0x80, 0x00, 0x00, 0x80, 0x80, 0x80, 0x80, 0x81, 0x8E, 0x70, 0x18, 0x06, 0x01, 0x00, /
 219:Src/MyOLED.c  ****   0x00, 0x80, 0x80, 0x80, 0x80, 0x80, 0x80, 0x00, 0x00, 0x21, 0x30, 0x2C, 0x22, 0x21, 0x30, 0x00, /
 220:Src/MyOLED.c  ****   0x00, 0x00, 0x00, 0x00, 0x80, 0x7C, 0x02, 0x02, 0x00, 0x00, 0x00, 0x00, 0x00, 0x3F, 0x40, 0x40, /
 221:Src/MyOLED.c  ****   0x00, 0x00, 0x00, 0x00, 0xFF, 0x00, 0x00, 0x00, 0x00, 0x00, 0x00, 0x00, 0xFF, 0x00, 0x00, 0x00, /
 222:Src/MyOLED.c  ****   0x00, 0x02, 0x02, 0x7C, 0x80, 0x00, 0x00, 0x00, 0x00, 0x40, 0x40, 0x3F, 0x00, 0x00, 0x00, 0x00, /
 223:Src/MyOLED.c  ****   0x00, 0x06, 0x01, 0x01, 0x02, 0x02, 0x04, 0x04, 0x00, 0x00, 0x00, 0x00, 0x00, 0x00, 0x00, 0x00, /
 224:Src/MyOLED.c  **** 	
 225:Src/MyOLED.c  **** };
 226:Src/MyOLED.c  **** 
 227:Src/MyOLED.c  **** 
 228:Src/MyOLED.c  **** 
 229:Src/MyOLED.c  **** 
 230:Src/MyOLED.c  **** 
 231:Src/MyOLED.c  **** 
 232:Src/MyOLED.c  **** GPIO_TypeDef *resgpio = 0,*ssgpio = 0,*dcgpio = 0;
 233:Src/MyOLED.c  **** unsigned char respin = 0,sspin = 0,dcpin = 0;
 234:Src/MyOLED.c  **** unsigned char Dot_Data[132][8];//OLED.
 235:Src/MyOLED.c  **** 
 236:Src/MyOLED.c  **** __weak void OLED_SPI_Transmit(unsigned char *pData, uint16_t Size, uint32_t Timeout);
 237:Src/MyOLED.c  **** 
 238:Src/MyOLED.c  **** 
 239:Src/MyOLED.c  **** void SetRESPin(void* gpio, unsigned char pin){resgpio = (GPIO_TypeDef*)gpio;respin = pin;}
  26              		.loc 1 239 0
  27              		.cfi_startproc
  28              		@ args = 0, pretend = 0, frame = 0
  29              		@ frame_needed = 0, uses_anonymous_args = 0
  30              		@ link register save eliminated.
  31              	.LVL0:
  32              		.loc 1 239 0
  33 0000 024B     		ldr	r3, .L2
  34 0002 1860     		str	r0, [r3]
  35 0004 024B     		ldr	r3, .L2+4
  36 0006 1970     		strb	r1, [r3]
  37 0008 7047     		bx	lr
  38              	.L3:
  39 000a 00BF     		.align	2
  40              	.L2:
  41 000c 00000000 		.word	.LANCHOR0
  42 0010 00000000 		.word	.LANCHOR1
  43              		.cfi_endproc
  44              	.LFE66:
  46              		.section	.text.SetDCPin,"ax",%progbits
  47              		.align	1
  48              		.global	SetDCPin
ARM GAS  C:\Users\ADMINI~1\AppData\Local\Temp\cc6xb3Hf.s 			page 6


  49              		.syntax unified
  50              		.thumb
  51              		.thumb_func
  52              		.fpu softvfp
  54              	SetDCPin:
  55              	.LFB67:
 240:Src/MyOLED.c  **** void SetDCPin(void* gpio, unsigned char pin){dcgpio = (GPIO_TypeDef*)gpio;dcpin = pin;}
  56              		.loc 1 240 0
  57              		.cfi_startproc
  58              		@ args = 0, pretend = 0, frame = 0
  59              		@ frame_needed = 0, uses_anonymous_args = 0
  60              		@ link register save eliminated.
  61              	.LVL1:
  62              		.loc 1 240 0
  63 0000 024B     		ldr	r3, .L5
  64 0002 1860     		str	r0, [r3]
  65 0004 024B     		ldr	r3, .L5+4
  66 0006 1970     		strb	r1, [r3]
  67 0008 7047     		bx	lr
  68              	.L6:
  69 000a 00BF     		.align	2
  70              	.L5:
  71 000c 00000000 		.word	.LANCHOR2
  72 0010 00000000 		.word	.LANCHOR3
  73              		.cfi_endproc
  74              	.LFE67:
  76              		.section	.text.SetSSPin,"ax",%progbits
  77              		.align	1
  78              		.global	SetSSPin
  79              		.syntax unified
  80              		.thumb
  81              		.thumb_func
  82              		.fpu softvfp
  84              	SetSSPin:
  85              	.LFB68:
 241:Src/MyOLED.c  **** void SetSSPin(void* gpio, unsigned char pin){ssgpio = (GPIO_TypeDef*)gpio;sspin = pin;}
  86              		.loc 1 241 0
  87              		.cfi_startproc
  88              		@ args = 0, pretend = 0, frame = 0
  89              		@ frame_needed = 0, uses_anonymous_args = 0
  90              		@ link register save eliminated.
  91              	.LVL2:
  92              		.loc 1 241 0
  93 0000 024B     		ldr	r3, .L8
  94 0002 1860     		str	r0, [r3]
  95 0004 024B     		ldr	r3, .L8+4
  96 0006 1970     		strb	r1, [r3]
  97 0008 7047     		bx	lr
  98              	.L9:
  99 000a 00BF     		.align	2
 100              	.L8:
 101 000c 00000000 		.word	.LANCHOR4
 102 0010 00000000 		.word	.LANCHOR5
 103              		.cfi_endproc
 104              	.LFE68:
 106              		.section	.text.Setpinstate,"ax",%progbits
 107              		.align	1
ARM GAS  C:\Users\ADMINI~1\AppData\Local\Temp\cc6xb3Hf.s 			page 7


 108              		.global	Setpinstate
 109              		.syntax unified
 110              		.thumb
 111              		.thumb_func
 112              		.fpu softvfp
 114              	Setpinstate:
 115              	.LFB69:
 242:Src/MyOLED.c  **** void Setpinstate(int _0res_1dc_2ss,char set){
 116              		.loc 1 242 0
 117              		.cfi_startproc
 118              		@ args = 0, pretend = 0, frame = 0
 119              		@ frame_needed = 0, uses_anonymous_args = 0
 120              		@ link register save eliminated.
 121              	.LVL3:
 243:Src/MyOLED.c  **** 	if(_0res_1dc_2ss==0){
 122              		.loc 1 243 0
 123 0000 20B1     		cbz	r0, .L14
 244:Src/MyOLED.c  **** 		resgpio->BSRR = ((set==0)<<(respin+16))|((set==1)<<respin);
 245:Src/MyOLED.c  **** 	}else if(_0res_1dc_2ss==1){
 124              		.loc 1 245 0
 125 0002 0128     		cmp	r0, #1
 126 0004 14D0     		beq	.L15
 246:Src/MyOLED.c  **** 		dcgpio->BSRR = ((set==0)<<(dcpin+16))|((set==1)<<dcpin);
 247:Src/MyOLED.c  **** 	}else if(_0res_1dc_2ss==2){
 127              		.loc 1 247 0
 128 0006 0228     		cmp	r0, #2
 129 0008 24D0     		beq	.L16
 130              	.LVL4:
 131              	.L10:
 248:Src/MyOLED.c  **** 		ssgpio->BSRR = ((set==0)<<(sspin+16))|((set==1)<<sspin);
 249:Src/MyOLED.c  **** 	}
 250:Src/MyOLED.c  **** }
 132              		.loc 1 250 0
 133 000a 7047     		bx	lr
 134              	.LVL5:
 135              	.L14:
 244:Src/MyOLED.c  **** 	}else if(_0res_1dc_2ss==1){
 136              		.loc 1 244 0
 137 000c B1FA81F3 		clz	r3, r1
 138 0010 5B09     		lsrs	r3, r3, #5
 139 0012 194A     		ldr	r2, .L17
 140 0014 1278     		ldrb	r2, [r2]	@ zero_extendqisi2
 141 0016 02F11000 		add	r0, r2, #16
 142              	.LVL6:
 143 001a 8340     		lsls	r3, r3, r0
 144 001c 0129     		cmp	r1, #1
 145 001e 14BF     		ite	ne
 146 0020 0021     		movne	r1, #0
 147              	.LVL7:
 148 0022 0121     		moveq	r1, #1
 149 0024 9140     		lsls	r1, r1, r2
 150 0026 154A     		ldr	r2, .L17+4
 151 0028 1268     		ldr	r2, [r2]
 152 002a 0B43     		orrs	r3, r3, r1
 153 002c 1361     		str	r3, [r2, #16]
 154 002e 7047     		bx	lr
 155              	.LVL8:
ARM GAS  C:\Users\ADMINI~1\AppData\Local\Temp\cc6xb3Hf.s 			page 8


 156              	.L15:
 246:Src/MyOLED.c  **** 		dcgpio->BSRR = ((set==0)<<(dcpin+16))|((set==1)<<dcpin);
 157              		.loc 1 246 0
 158 0030 B1FA81F3 		clz	r3, r1
 159 0034 5B09     		lsrs	r3, r3, #5
 160 0036 124A     		ldr	r2, .L17+8
 161 0038 1278     		ldrb	r2, [r2]	@ zero_extendqisi2
 162 003a 02F11000 		add	r0, r2, #16
 163              	.LVL9:
 164 003e 8340     		lsls	r3, r3, r0
 165 0040 0129     		cmp	r1, #1
 166 0042 14BF     		ite	ne
 167 0044 0021     		movne	r1, #0
 168              	.LVL10:
 169 0046 0121     		moveq	r1, #1
 170 0048 9140     		lsls	r1, r1, r2
 171 004a 0E4A     		ldr	r2, .L17+12
 172 004c 1268     		ldr	r2, [r2]
 173 004e 0B43     		orrs	r3, r3, r1
 174 0050 1361     		str	r3, [r2, #16]
 175 0052 7047     		bx	lr
 176              	.LVL11:
 177              	.L16:
 248:Src/MyOLED.c  **** 		ssgpio->BSRR = ((set==0)<<(sspin+16))|((set==1)<<sspin);
 178              		.loc 1 248 0
 179 0054 B1FA81F3 		clz	r3, r1
 180 0058 5B09     		lsrs	r3, r3, #5
 181 005a 0B4A     		ldr	r2, .L17+16
 182 005c 1278     		ldrb	r2, [r2]	@ zero_extendqisi2
 183 005e 02F11000 		add	r0, r2, #16
 184              	.LVL12:
 185 0062 8340     		lsls	r3, r3, r0
 186 0064 0129     		cmp	r1, #1
 187 0066 14BF     		ite	ne
 188 0068 0021     		movne	r1, #0
 189              	.LVL13:
 190 006a 0121     		moveq	r1, #1
 191 006c 9140     		lsls	r1, r1, r2
 192 006e 074A     		ldr	r2, .L17+20
 193 0070 1268     		ldr	r2, [r2]
 194 0072 1943     		orrs	r1, r1, r3
 195 0074 1161     		str	r1, [r2, #16]
 196              		.loc 1 250 0
 197 0076 C8E7     		b	.L10
 198              	.L18:
 199              		.align	2
 200              	.L17:
 201 0078 00000000 		.word	.LANCHOR1
 202 007c 00000000 		.word	.LANCHOR0
 203 0080 00000000 		.word	.LANCHOR3
 204 0084 00000000 		.word	.LANCHOR2
 205 0088 00000000 		.word	.LANCHOR5
 206 008c 00000000 		.word	.LANCHOR4
 207              		.cfi_endproc
 208              	.LFE69:
 210              		.section	.text.sendSPI,"ax",%progbits
 211              		.align	1
ARM GAS  C:\Users\ADMINI~1\AppData\Local\Temp\cc6xb3Hf.s 			page 9


 212              		.global	sendSPI
 213              		.syntax unified
 214              		.thumb
 215              		.thumb_func
 216              		.fpu softvfp
 218              	sendSPI:
 219              	.LFB70:
 251:Src/MyOLED.c  **** void sendSPI(unsigned char Indata, unsigned char DC){
 220              		.loc 1 251 0
 221              		.cfi_startproc
 222              		@ args = 0, pretend = 0, frame = 8
 223              		@ frame_needed = 0, uses_anonymous_args = 0
 224              	.LVL14:
 225 0000 10B5     		push	{r4, lr}
 226              	.LCFI0:
 227              		.cfi_def_cfa_offset 8
 228              		.cfi_offset 4, -8
 229              		.cfi_offset 14, -4
 230 0002 82B0     		sub	sp, sp, #8
 231              	.LCFI1:
 232              		.cfi_def_cfa_offset 16
 233 0004 02AC     		add	r4, sp, #8
 234 0006 04F8010D 		strb	r0, [r4, #-1]!
 252:Src/MyOLED.c  **** 	Setpinstate(1,DC);//if(DC)GPIOA->BSRR=0x00000040;else GPIOA->BSRR=0x00400000;	//DC
 235              		.loc 1 252 0
 236 000a 0120     		movs	r0, #1
 237              	.LVL15:
 238 000c FFF7FEFF 		bl	Setpinstate
 239              	.LVL16:
 253:Src/MyOLED.c  **** 	Setpinstate(2,0);//GPIOA->BSRR=0x00100000;//SS
 240              		.loc 1 253 0
 241 0010 0021     		movs	r1, #0
 242 0012 0220     		movs	r0, #2
 243 0014 FFF7FEFF 		bl	Setpinstate
 244              	.LVL17:
 254:Src/MyOLED.c  **** 	OLED_SPI_Transmit((unsigned char*)(&Indata),1,100);
 245              		.loc 1 254 0
 246 0018 6422     		movs	r2, #100
 247 001a 0121     		movs	r1, #1
 248 001c 2046     		mov	r0, r4
 249 001e FFF7FEFF 		bl	OLED_SPI_Transmit
 250              	.LVL18:
 255:Src/MyOLED.c  **** 	//SPI.transfer(Indata); //Send the HEX data over SPI-1 port and store the received byte to the <da
 256:Src/MyOLED.c  **** 	Setpinstate(2,1);//GPIOA->BSRR=0x00000010;//SS
 251              		.loc 1 256 0
 252 0022 0121     		movs	r1, #1
 253 0024 0220     		movs	r0, #2
 254 0026 FFF7FEFF 		bl	Setpinstate
 255              	.LVL19:
 257:Src/MyOLED.c  **** }
 256              		.loc 1 257 0
 257 002a 02B0     		add	sp, sp, #8
 258              	.LCFI2:
 259              		.cfi_def_cfa_offset 8
 260              		@ sp needed
 261 002c 10BD     		pop	{r4, pc}
 262              		.cfi_endproc
ARM GAS  C:\Users\ADMINI~1\AppData\Local\Temp\cc6xb3Hf.s 			page 10


 263              	.LFE70:
 265              		.section	.text.send2SPI,"ax",%progbits
 266              		.align	1
 267              		.global	send2SPI
 268              		.syntax unified
 269              		.thumb
 270              		.thumb_func
 271              		.fpu softvfp
 273              	send2SPI:
 274              	.LFB71:
 258:Src/MyOLED.c  **** void send2SPI(unsigned char Indata1, unsigned char Indata2, unsigned char DC){
 275              		.loc 1 258 0
 276              		.cfi_startproc
 277              		@ args = 0, pretend = 0, frame = 8
 278              		@ frame_needed = 0, uses_anonymous_args = 0
 279              	.LVL20:
 280 0000 00B5     		push	{lr}
 281              	.LCFI3:
 282              		.cfi_def_cfa_offset 4
 283              		.cfi_offset 14, -4
 284 0002 83B0     		sub	sp, sp, #12
 285              	.LCFI4:
 286              		.cfi_def_cfa_offset 16
 287 0004 8DF80700 		strb	r0, [sp, #7]
 288 0008 8DF80610 		strb	r1, [sp, #6]
 259:Src/MyOLED.c  **** 	Setpinstate(1,DC);//if(DC)GPIOA->BSRR=0x00000040;else GPIOA->BSRR=0x00400000;	//DC
 289              		.loc 1 259 0
 290 000c 1146     		mov	r1, r2
 291              	.LVL21:
 292 000e 0120     		movs	r0, #1
 293              	.LVL22:
 294 0010 FFF7FEFF 		bl	Setpinstate
 295              	.LVL23:
 260:Src/MyOLED.c  **** 	Setpinstate(2,0);//GPIOA->BSRR=0x00100000;//SS
 296              		.loc 1 260 0
 297 0014 0021     		movs	r1, #0
 298 0016 0220     		movs	r0, #2
 299 0018 FFF7FEFF 		bl	Setpinstate
 300              	.LVL24:
 261:Src/MyOLED.c  **** 	OLED_SPI_Transmit((unsigned char*)(&Indata1),1,100);
 301              		.loc 1 261 0
 302 001c 6422     		movs	r2, #100
 303 001e 0121     		movs	r1, #1
 304 0020 0DF10700 		add	r0, sp, #7
 305 0024 FFF7FEFF 		bl	OLED_SPI_Transmit
 306              	.LVL25:
 262:Src/MyOLED.c  **** 	OLED_SPI_Transmit((unsigned char*)(&Indata2),1,100);
 307              		.loc 1 262 0
 308 0028 6422     		movs	r2, #100
 309 002a 0121     		movs	r1, #1
 310 002c 0DF10600 		add	r0, sp, #6
 311 0030 FFF7FEFF 		bl	OLED_SPI_Transmit
 312              	.LVL26:
 263:Src/MyOLED.c  **** 	Setpinstate(2,1);//GPIOA->BSRR=0x00000010;//SS
 313              		.loc 1 263 0
 314 0034 0121     		movs	r1, #1
 315 0036 0220     		movs	r0, #2
ARM GAS  C:\Users\ADMINI~1\AppData\Local\Temp\cc6xb3Hf.s 			page 11


 316 0038 FFF7FEFF 		bl	Setpinstate
 317              	.LVL27:
 264:Src/MyOLED.c  **** }
 318              		.loc 1 264 0
 319 003c 03B0     		add	sp, sp, #12
 320              	.LCFI5:
 321              		.cfi_def_cfa_offset 4
 322              		@ sp needed
 323 003e 5DF804FB 		ldr	pc, [sp], #4
 324              		.cfi_endproc
 325              	.LFE71:
 327              		.section	.text.ShowBuffer,"ax",%progbits
 328              		.align	1
 329              		.global	ShowBuffer
 330              		.syntax unified
 331              		.thumb
 332              		.thumb_func
 333              		.fpu softvfp
 335              	ShowBuffer:
 336              	.LFB72:
 265:Src/MyOLED.c  **** void ShowBuffer(){
 337              		.loc 1 265 0
 338              		.cfi_startproc
 339              		@ args = 0, pretend = 0, frame = 0
 340              		@ frame_needed = 0, uses_anonymous_args = 0
 341 0000 38B5     		push	{r3, r4, r5, lr}
 342              	.LCFI6:
 343              		.cfi_def_cfa_offset 16
 344              		.cfi_offset 3, -16
 345              		.cfi_offset 4, -12
 346              		.cfi_offset 5, -8
 347              		.cfi_offset 14, -4
 266:Src/MyOLED.c  **** 	sendSPI(0x40 + 0, OLED_Comm); // Set  Display Start Line(SY)
 348              		.loc 1 266 0
 349 0002 0021     		movs	r1, #0
 350 0004 4020     		movs	r0, #64
 351 0006 FFF7FEFF 		bl	sendSPI
 352              	.LVL28:
 353              	.LBB2:
 267:Src/MyOLED.c  **** 	for (int ay = 0; ay < 8; ay++)
 354              		.loc 1 267 0
 355 000a 0025     		movs	r5, #0
 356 000c 0AE0     		b	.L24
 357              	.LVL29:
 358              	.L26:
 359              	.LBB3:
 268:Src/MyOLED.c  **** 	{
 269:Src/MyOLED.c  **** 		sendSPI(0xB8 + ay, OLED_Comm); // Set   Page Address Line(Y)
 270:Src/MyOLED.c  **** 		for (int ax = 0; ax < 132; ax++)
 271:Src/MyOLED.c  **** 		{
 272:Src/MyOLED.c  **** 			sendSPI(Dot_Data[ax][ay], OLED_Data); //  Write  Display Data
 360              		.loc 1 272 0 discriminator 3
 361 000e 0D4B     		ldr	r3, .L30
 362 0010 03EBC403 		add	r3, r3, r4, lsl #3
 363 0014 0121     		movs	r1, #1
 364 0016 585D     		ldrb	r0, [r3, r5]	@ zero_extendqisi2
 365 0018 FFF7FEFF 		bl	sendSPI
ARM GAS  C:\Users\ADMINI~1\AppData\Local\Temp\cc6xb3Hf.s 			page 12


 366              	.LVL30:
 270:Src/MyOLED.c  **** 		{
 367              		.loc 1 270 0 discriminator 3
 368 001c 0134     		adds	r4, r4, #1
 369              	.LVL31:
 370              	.L25:
 270:Src/MyOLED.c  **** 		{
 371              		.loc 1 270 0 is_stmt 0 discriminator 1
 372 001e 832C     		cmp	r4, #131
 373 0020 F5DD     		ble	.L26
 374              	.LBE3:
 267:Src/MyOLED.c  **** 	for (int ay = 0; ay < 8; ay++)
 375              		.loc 1 267 0 is_stmt 1 discriminator 2
 376 0022 0135     		adds	r5, r5, #1
 377              	.LVL32:
 378              	.L24:
 267:Src/MyOLED.c  **** 	for (int ay = 0; ay < 8; ay++)
 379              		.loc 1 267 0 is_stmt 0 discriminator 1
 380 0024 072D     		cmp	r5, #7
 381 0026 07DC     		bgt	.L29
 269:Src/MyOLED.c  **** 		for (int ax = 0; ax < 132; ax++)
 382              		.loc 1 269 0 is_stmt 1
 383 0028 A5F14800 		sub	r0, r5, #72
 384 002c 0021     		movs	r1, #0
 385 002e C0B2     		uxtb	r0, r0
 386 0030 FFF7FEFF 		bl	sendSPI
 387              	.LVL33:
 388              	.LBB4:
 270:Src/MyOLED.c  **** 		{
 389              		.loc 1 270 0
 390 0034 0024     		movs	r4, #0
 391 0036 F2E7     		b	.L25
 392              	.LVL34:
 393              	.L29:
 394              	.LBE4:
 395              	.LBE2:
 273:Src/MyOLED.c  **** 		}
 274:Src/MyOLED.c  **** 	}
 275:Src/MyOLED.c  **** 	sendSPI(0x40 + 0, OLED_Comm); // Set  Display Start Line(SY)
 396              		.loc 1 275 0
 397 0038 0021     		movs	r1, #0
 398 003a 4020     		movs	r0, #64
 399 003c FFF7FEFF 		bl	sendSPI
 400              	.LVL35:
 276:Src/MyOLED.c  **** }
 401              		.loc 1 276 0
 402 0040 38BD     		pop	{r3, r4, r5, pc}
 403              	.LVL36:
 404              	.L31:
 405 0042 00BF     		.align	2
 406              	.L30:
 407 0044 00000000 		.word	Dot_Data
 408              		.cfi_endproc
 409              	.LFE72:
 411              		.section	.text.ClearBuffer,"ax",%progbits
 412              		.align	1
 413              		.global	ClearBuffer
ARM GAS  C:\Users\ADMINI~1\AppData\Local\Temp\cc6xb3Hf.s 			page 13


 414              		.syntax unified
 415              		.thumb
 416              		.thumb_func
 417              		.fpu softvfp
 419              	ClearBuffer:
 420              	.LFB73:
 277:Src/MyOLED.c  **** void ClearBuffer(unsigned char DC){
 421              		.loc 1 277 0
 422              		.cfi_startproc
 423              		@ args = 0, pretend = 0, frame = 0
 424              		@ frame_needed = 0, uses_anonymous_args = 0
 425              		@ link register save eliminated.
 426              	.LVL37:
 278:Src/MyOLED.c  **** 	int a = DC * 0xFF;
 427              		.loc 1 278 0
 428 0000 C0EB0020 		rsb	r0, r0, r0, lsl #8
 429              	.LVL38:
 430              	.LBB5:
 279:Src/MyOLED.c  **** 	for (int ax = 0; ax < 132; ax++)
 431              		.loc 1 279 0
 432 0004 0021     		movs	r1, #0
 433 0006 07E0     		b	.L33
 434              	.LVL39:
 435              	.L34:
 436              	.LBB6:
 280:Src/MyOLED.c  **** 	{
 281:Src/MyOLED.c  **** 		for (int ay = 0; ay < 8; ay++)
 282:Src/MyOLED.c  **** 		{
 283:Src/MyOLED.c  **** 			Dot_Data[ax][ay] = a;
 437              		.loc 1 283 0 discriminator 3
 438 0008 064A     		ldr	r2, .L38
 439 000a 02EBC102 		add	r2, r2, r1, lsl #3
 440 000e D054     		strb	r0, [r2, r3]
 281:Src/MyOLED.c  **** 		{
 441              		.loc 1 281 0 discriminator 3
 442 0010 0133     		adds	r3, r3, #1
 443              	.LVL40:
 444              	.L35:
 281:Src/MyOLED.c  **** 		{
 445              		.loc 1 281 0 is_stmt 0 discriminator 1
 446 0012 072B     		cmp	r3, #7
 447 0014 F8DD     		ble	.L34
 448              	.LBE6:
 279:Src/MyOLED.c  **** 	for (int ax = 0; ax < 132; ax++)
 449              		.loc 1 279 0 is_stmt 1 discriminator 2
 450 0016 0131     		adds	r1, r1, #1
 451              	.LVL41:
 452              	.L33:
 279:Src/MyOLED.c  **** 	for (int ax = 0; ax < 132; ax++)
 453              		.loc 1 279 0 is_stmt 0 discriminator 1
 454 0018 8329     		cmp	r1, #131
 455 001a 01DC     		bgt	.L37
 456              	.LBB7:
 281:Src/MyOLED.c  **** 		{
 457              		.loc 1 281 0 is_stmt 1
 458 001c 0023     		movs	r3, #0
 459 001e F8E7     		b	.L35
ARM GAS  C:\Users\ADMINI~1\AppData\Local\Temp\cc6xb3Hf.s 			page 14


 460              	.L37:
 461              	.LBE7:
 462              	.LBE5:
 284:Src/MyOLED.c  **** 		}
 285:Src/MyOLED.c  **** 	}
 286:Src/MyOLED.c  **** }
 463              		.loc 1 286 0
 464 0020 7047     		bx	lr
 465              	.L39:
 466 0022 00BF     		.align	2
 467              	.L38:
 468 0024 00000000 		.word	Dot_Data
 469              		.cfi_endproc
 470              	.LFE73:
 472              		.section	.text.OLEDinit,"ax",%progbits
 473              		.align	1
 474              		.global	OLEDinit
 475              		.syntax unified
 476              		.thumb
 477              		.thumb_func
 478              		.fpu softvfp
 480              	OLEDinit:
 481              	.LFB74:
 287:Src/MyOLED.c  **** 
 288:Src/MyOLED.c  **** 
 289:Src/MyOLED.c  **** 
 290:Src/MyOLED.c  **** void OLEDinit(){
 482              		.loc 1 290 0
 483              		.cfi_startproc
 484              		@ args = 0, pretend = 0, frame = 0
 485              		@ frame_needed = 0, uses_anonymous_args = 0
 486 0000 08B5     		push	{r3, lr}
 487              	.LCFI7:
 488              		.cfi_def_cfa_offset 8
 489              		.cfi_offset 3, -8
 490              		.cfi_offset 14, -4
 491              	.LVL42:
 492              	.LBB8:
 291:Src/MyOLED.c  **** 	for(int sdasdwe=0;sdasdwe<132;sdasdwe++)for(int sdasdwe1=0;sdasdwe1<8;sdasdwe1++)Dot_Data[sdasdwe]
 493              		.loc 1 291 0
 494 0002 0020     		movs	r0, #0
 495 0004 08E0     		b	.L41
 496              	.LVL43:
 497              	.L42:
 498              	.LBB9:
 499              		.loc 1 291 0 is_stmt 0 discriminator 4
 500 0006 1C4A     		ldr	r2, .L47
 501 0008 02EBC002 		add	r2, r2, r0, lsl #3
 502 000c 0021     		movs	r1, #0
 503 000e D154     		strb	r1, [r2, r3]
 504 0010 0133     		adds	r3, r3, #1
 505              	.LVL44:
 506              	.L43:
 507              		.loc 1 291 0 discriminator 2
 508 0012 072B     		cmp	r3, #7
 509 0014 F7DD     		ble	.L42
 510              	.LBE9:
ARM GAS  C:\Users\ADMINI~1\AppData\Local\Temp\cc6xb3Hf.s 			page 15


 511              		.loc 1 291 0 discriminator 5
 512 0016 0130     		adds	r0, r0, #1
 513              	.LVL45:
 514              	.L41:
 515              		.loc 1 291 0 discriminator 6
 516 0018 8328     		cmp	r0, #131
 517 001a 01DC     		bgt	.L46
 518              	.LBB10:
 519              		.loc 1 291 0
 520 001c 0023     		movs	r3, #0
 521 001e F8E7     		b	.L43
 522              	.L46:
 523              	.LBE10:
 524              	.LBE8:
 292:Src/MyOLED.c  **** 	
 293:Src/MyOLED.c  **** 	Setpinstate(0,0);//resgpio->BSRR=1<<(respin+16);//RES
 525              		.loc 1 293 0 is_stmt 1
 526 0020 0021     		movs	r1, #0
 527 0022 0846     		mov	r0, r1
 528              	.LVL46:
 529 0024 FFF7FEFF 		bl	Setpinstate
 530              	.LVL47:
 294:Src/MyOLED.c  **** 	HAL_Delay(50);
 531              		.loc 1 294 0
 532 0028 3220     		movs	r0, #50
 533 002a FFF7FEFF 		bl	HAL_Delay
 534              	.LVL48:
 295:Src/MyOLED.c  **** 	Setpinstate(0,1);//resgpio->BSRR=1<<respin;
 535              		.loc 1 295 0
 536 002e 0121     		movs	r1, #1
 537 0030 0020     		movs	r0, #0
 538 0032 FFF7FEFF 		bl	Setpinstate
 539              	.LVL49:
 296:Src/MyOLED.c  **** 
 297:Src/MyOLED.c  **** 
 298:Src/MyOLED.c  **** 	sendSPI(0xC8, OLED_Comm);
 540              		.loc 1 298 0
 541 0036 0021     		movs	r1, #0
 542 0038 C820     		movs	r0, #200
 543 003a FFF7FEFF 		bl	sendSPI
 544              	.LVL50:
 299:Src/MyOLED.c  **** 	sendSPI(0xA1, OLED_Comm);
 545              		.loc 1 299 0
 546 003e 0021     		movs	r1, #0
 547 0040 A120     		movs	r0, #161
 548 0042 FFF7FEFF 		bl	sendSPI
 549              	.LVL51:
 300:Src/MyOLED.c  **** 	send2SPI(0xA8, 0x3f, OLED_Comm);
 550              		.loc 1 300 0
 551 0046 0022     		movs	r2, #0
 552 0048 3F21     		movs	r1, #63
 553 004a A820     		movs	r0, #168
 554 004c FFF7FEFF 		bl	send2SPI
 555              	.LVL52:
 301:Src/MyOLED.c  **** 	send2SPI(0xD9, 0x0F, OLED_Comm); //  Dis-charge/Pre-charge Period Mode/Data Set  // F0 B3 77 3B 0F
 556              		.loc 1 301 0
 557 0050 0022     		movs	r2, #0
ARM GAS  C:\Users\ADMINI~1\AppData\Local\Temp\cc6xb3Hf.s 			page 16


 558 0052 0F21     		movs	r1, #15
 559 0054 D920     		movs	r0, #217
 560 0056 FFF7FEFF 		bl	send2SPI
 561              	.LVL53:
 302:Src/MyOLED.c  **** 	send2SPI(0xD5, 0x80, OLED_Comm); // Divide Ratio/Oscillator Frequency Mode/Data Set
 562              		.loc 1 302 0
 563 005a 0022     		movs	r2, #0
 564 005c 8021     		movs	r1, #128
 565 005e D520     		movs	r0, #213
 566 0060 FFF7FEFF 		bl	send2SPI
 567              	.LVL54:
 303:Src/MyOLED.c  **** 	sendSPI(0xAF, OLED_Comm); // Display ON
 568              		.loc 1 303 0
 569 0064 0021     		movs	r1, #0
 570 0066 AF20     		movs	r0, #175
 571 0068 FFF7FEFF 		bl	sendSPI
 572              	.LVL55:
 304:Src/MyOLED.c  **** 	ClearBuffer(0);
 573              		.loc 1 304 0
 574 006c 0020     		movs	r0, #0
 575 006e FFF7FEFF 		bl	ClearBuffer
 576              	.LVL56:
 305:Src/MyOLED.c  **** 	ShowBuffer();
 577              		.loc 1 305 0
 578 0072 FFF7FEFF 		bl	ShowBuffer
 579              	.LVL57:
 306:Src/MyOLED.c  **** };
 580              		.loc 1 306 0
 581 0076 08BD     		pop	{r3, pc}
 582              	.L48:
 583              		.align	2
 584              	.L47:
 585 0078 00000000 		.word	Dot_Data
 586              		.cfi_endproc
 587              	.LFE74:
 589              		.section	.text.CharToNum,"ax",%progbits
 590              		.align	1
 591              		.global	CharToNum
 592              		.syntax unified
 593              		.thumb
 594              		.thumb_func
 595              		.fpu softvfp
 597              	CharToNum:
 598              	.LFB75:
 307:Src/MyOLED.c  **** int CharToNum(char inchar){
 599              		.loc 1 307 0
 600              		.cfi_startproc
 601              		@ args = 0, pretend = 0, frame = 0
 602              		@ frame_needed = 0, uses_anonymous_args = 0
 603              		@ link register save eliminated.
 604              	.LVL58:
 308:Src/MyOLED.c  **** 	if (inchar >= '0' && inchar <= '9')return inchar - 48;
 605              		.loc 1 308 0
 606 0000 A0F13003 		sub	r3, r0, #48
 607 0004 DBB2     		uxtb	r3, r3
 608 0006 092B     		cmp	r3, #9
 609 0008 0BD9     		bls	.L54
ARM GAS  C:\Users\ADMINI~1\AppData\Local\Temp\cc6xb3Hf.s 			page 17


 309:Src/MyOLED.c  **** 	if (inchar >= 'A' && inchar <= 'F')return inchar - 65;
 610              		.loc 1 309 0
 611 000a A0F14103 		sub	r3, r0, #65
 612 000e DBB2     		uxtb	r3, r3
 613 0010 052B     		cmp	r3, #5
 614 0012 08D9     		bls	.L55
 310:Src/MyOLED.c  **** 	if (inchar >= 'a' && inchar <= 'f')return inchar - 97;
 615              		.loc 1 310 0
 616 0014 A0F16103 		sub	r3, r0, #97
 617 0018 DBB2     		uxtb	r3, r3
 618 001a 052B     		cmp	r3, #5
 619 001c 05D8     		bhi	.L53
 620              		.loc 1 310 0 is_stmt 0 discriminator 1
 621 001e 6138     		subs	r0, r0, #97
 622              	.LVL59:
 623 0020 7047     		bx	lr
 624              	.LVL60:
 625              	.L54:
 308:Src/MyOLED.c  **** 	if (inchar >= '0' && inchar <= '9')return inchar - 48;
 626              		.loc 1 308 0 is_stmt 1 discriminator 1
 627 0022 3038     		subs	r0, r0, #48
 628              	.LVL61:
 629 0024 7047     		bx	lr
 630              	.LVL62:
 631              	.L55:
 309:Src/MyOLED.c  **** 	if (inchar >= 'A' && inchar <= 'F')return inchar - 65;
 632              		.loc 1 309 0 discriminator 1
 633 0026 4138     		subs	r0, r0, #65
 634              	.LVL63:
 635 0028 7047     		bx	lr
 636              	.LVL64:
 637              	.L53:
 311:Src/MyOLED.c  **** 	return -1;
 638              		.loc 1 311 0
 639 002a 4FF0FF30 		mov	r0, #-1
 640              	.LVL65:
 312:Src/MyOLED.c  **** }
 641              		.loc 1 312 0
 642 002e 7047     		bx	lr
 643              		.cfi_endproc
 644              	.LFE75:
 646              		.section	.text.ShowDrawDot,"ax",%progbits
 647              		.align	1
 648              		.global	ShowDrawDot
 649              		.syntax unified
 650              		.thumb
 651              		.thumb_func
 652              		.fpu softvfp
 654              	ShowDrawDot:
 655              	.LFB76:
 313:Src/MyOLED.c  **** void ShowDrawDot(unsigned char x, unsigned char y, unsigned char OnOff){
 656              		.loc 1 313 0
 657              		.cfi_startproc
 658              		@ args = 0, pretend = 0, frame = 0
 659              		@ frame_needed = 0, uses_anonymous_args = 0
 660              	.LVL66:
 314:Src/MyOLED.c  **** 	x = x + 1;
ARM GAS  C:\Users\ADMINI~1\AppData\Local\Temp\cc6xb3Hf.s 			page 18


 315:Src/MyOLED.c  **** 	if (y < 64 && x < 132)
 661              		.loc 1 315 0
 662 0000 3F29     		cmp	r1, #63
 663 0002 34D8     		bhi	.L61
 664 0004 0130     		adds	r0, r0, #1
 665              	.LVL67:
 666 0006 C0B2     		uxtb	r0, r0
 667              		.loc 1 315 0 is_stmt 0 discriminator 1
 668 0008 8328     		cmp	r0, #131
 669 000a 30D8     		bhi	.L61
 313:Src/MyOLED.c  **** void ShowDrawDot(unsigned char x, unsigned char y, unsigned char OnOff){
 670              		.loc 1 313 0 is_stmt 1
 671 000c 38B5     		push	{r3, r4, r5, lr}
 672              	.LCFI8:
 673              		.cfi_def_cfa_offset 16
 674              		.cfi_offset 3, -16
 675              		.cfi_offset 4, -12
 676              		.cfi_offset 5, -8
 677              		.cfi_offset 14, -4
 316:Src/MyOLED.c  **** 	{
 317:Src/MyOLED.c  **** 		if(OnOff)Dot_Data[x][y/8] |= (1 << (y%8));
 678              		.loc 1 317 0
 679 000e 02B3     		cbz	r2, .L58
 680              		.loc 1 317 0 is_stmt 0 discriminator 1
 681 0010 CB08     		lsrs	r3, r1, #3
 682 0012 01F00705 		and	r5, r1, #7
 683 0016 0124     		movs	r4, #1
 684 0018 04FA05F5 		lsl	r5, r4, r5
 685 001c 144C     		ldr	r4, .L64
 686 001e 04EBC000 		add	r0, r4, r0, lsl #3
 687 0022 C45C     		ldrb	r4, [r0, r3]	@ zero_extendqisi2
 688 0024 2C43     		orrs	r4, r4, r5
 689 0026 C454     		strb	r4, [r0, r3]
 690              	.L59:
 691 0028 1546     		mov	r5, r2
 692 002a 0C46     		mov	r4, r1
 318:Src/MyOLED.c  **** 		else Dot_Data[x][y/8] &= ~(1 << (y%8));
 319:Src/MyOLED.c  **** 		sendSPI(0x40 + 0, OLED_Comm);
 693              		.loc 1 319 0 is_stmt 1
 694 002c 0021     		movs	r1, #0
 695              	.LVL68:
 696 002e 4020     		movs	r0, #64
 697 0030 FFF7FEFF 		bl	sendSPI
 698              	.LVL69:
 320:Src/MyOLED.c  **** 		sendSPI(0xB8 + y/8, OLED_Comm);
 699              		.loc 1 320 0
 700 0034 E008     		lsrs	r0, r4, #3
 701 0036 4838     		subs	r0, r0, #72
 702 0038 0021     		movs	r1, #0
 703 003a C0B2     		uxtb	r0, r0
 704 003c FFF7FEFF 		bl	sendSPI
 705              	.LVL70:
 321:Src/MyOLED.c  **** 		sendSPI(OnOff << (y%8), OLED_Data);
 706              		.loc 1 321 0
 707 0040 04F00701 		and	r1, r4, #7
 708 0044 05FA01F0 		lsl	r0, r5, r1
 709 0048 0121     		movs	r1, #1
ARM GAS  C:\Users\ADMINI~1\AppData\Local\Temp\cc6xb3Hf.s 			page 19


 710 004a C0B2     		uxtb	r0, r0
 711 004c FFF7FEFF 		bl	sendSPI
 712              	.LVL71:
 322:Src/MyOLED.c  **** 	}
 323:Src/MyOLED.c  **** }
 713              		.loc 1 323 0
 714 0050 38BD     		pop	{r3, r4, r5, pc}
 715              	.LVL72:
 716              	.L58:
 318:Src/MyOLED.c  **** 		sendSPI(0x40 + 0, OLED_Comm);
 717              		.loc 1 318 0
 718 0052 CB08     		lsrs	r3, r1, #3
 719 0054 01F00705 		and	r5, r1, #7
 720 0058 0124     		movs	r4, #1
 721 005a 04FA05F5 		lsl	r5, r4, r5
 722 005e 044C     		ldr	r4, .L64
 723 0060 04EBC000 		add	r0, r4, r0, lsl #3
 724 0064 C45C     		ldrb	r4, [r0, r3]	@ zero_extendqisi2
 725 0066 24EA0504 		bic	r4, r4, r5
 726 006a C454     		strb	r4, [r0, r3]
 727 006c DCE7     		b	.L59
 728              	.L61:
 729              	.LCFI9:
 730              		.cfi_def_cfa_offset 0
 731              		.cfi_restore 3
 732              		.cfi_restore 4
 733              		.cfi_restore 5
 734              		.cfi_restore 14
 735 006e 7047     		bx	lr
 736              	.L65:
 737              		.align	2
 738              	.L64:
 739 0070 00000000 		.word	Dot_Data
 740              		.cfi_endproc
 741              	.LFE76:
 743              		.section	.text.ShowDrawChar,"ax",%progbits
 744              		.align	1
 745              		.global	ShowDrawChar
 746              		.syntax unified
 747              		.thumb
 748              		.thumb_func
 749              		.fpu softvfp
 751              	ShowDrawChar:
 752              	.LFB77:
 324:Src/MyOLED.c  **** void ShowDrawChar(unsigned char x, unsigned char y, char Fonts, char charater){
 753              		.loc 1 324 0
 754              		.cfi_startproc
 755              		@ args = 0, pretend = 0, frame = 0
 756              		@ frame_needed = 0, uses_anonymous_args = 0
 757              	.LVL73:
 758 0000 2DE9F843 		push	{r3, r4, r5, r6, r7, r8, r9, lr}
 759              	.LCFI10:
 760              		.cfi_def_cfa_offset 32
 761              		.cfi_offset 3, -32
 762              		.cfi_offset 4, -28
 763              		.cfi_offset 5, -24
 764              		.cfi_offset 6, -20
ARM GAS  C:\Users\ADMINI~1\AppData\Local\Temp\cc6xb3Hf.s 			page 20


 765              		.cfi_offset 7, -16
 766              		.cfi_offset 8, -12
 767              		.cfi_offset 9, -8
 768              		.cfi_offset 14, -4
 769 0004 0746     		mov	r7, r0
 770 0006 0E46     		mov	r6, r1
 325:Src/MyOLED.c  **** 	charater &= 0x7f;
 771              		.loc 1 325 0
 772 0008 03F07F09 		and	r9, r3, #127
 773              	.LVL74:
 326:Src/MyOLED.c  **** 	unsigned char WrData;
 327:Src/MyOLED.c  **** 	if (Fonts == OLED_Char6X8) {
 774              		.loc 1 327 0
 775 000c 1ABB     		cbnz	r2, .L67
 328:Src/MyOLED.c  **** 		if (y < 57 && x < 124 && charater > 31)
 776              		.loc 1 328 0
 777 000e 3829     		cmp	r1, #56
 778 0010 23D8     		bhi	.L66
 779              		.loc 1 328 0 is_stmt 0 discriminator 1
 780 0012 7B28     		cmp	r0, #123
 781 0014 21D8     		bhi	.L66
 782              		.loc 1 328 0 discriminator 2
 783 0016 B9F11F0F 		cmp	r9, #31
 784 001a 1ED9     		bls	.L66
 785              	.LBB11:
 329:Src/MyOLED.c  **** 		{
 330:Src/MyOLED.c  **** 			for (int ax = 0; ax < 6; ax++)
 786              		.loc 1 330 0 is_stmt 1
 787 001c 0025     		movs	r5, #0
 788 001e 0DE0     		b	.L69
 789              	.LVL75:
 790              	.L71:
 791              	.LBB12:
 331:Src/MyOLED.c  **** 			{
 332:Src/MyOLED.c  **** 				WrData = F6x8[charater - 32][ax];
 333:Src/MyOLED.c  **** 				for (int ay = 0; ay < 8; ay++)
 334:Src/MyOLED.c  **** 				{
 335:Src/MyOLED.c  **** 					ShowDrawDot(x + ax, y + ay, WrData & (1 << ay));
 792              		.loc 1 335 0 discriminator 3
 793 0020 0122     		movs	r2, #1
 794 0022 A240     		lsls	r2, r2, r4
 795 0024 3119     		adds	r1, r6, r4
 796 0026 7819     		adds	r0, r7, r5
 797 0028 02EA0802 		and	r2, r2, r8
 798 002c C9B2     		uxtb	r1, r1
 799 002e C0B2     		uxtb	r0, r0
 800 0030 FFF7FEFF 		bl	ShowDrawDot
 801              	.LVL76:
 333:Src/MyOLED.c  **** 				{
 802              		.loc 1 333 0 discriminator 3
 803 0034 0134     		adds	r4, r4, #1
 804              	.LVL77:
 805              	.L70:
 333:Src/MyOLED.c  **** 				{
 806              		.loc 1 333 0 is_stmt 0 discriminator 1
 807 0036 072C     		cmp	r4, #7
 808 0038 F2DD     		ble	.L71
ARM GAS  C:\Users\ADMINI~1\AppData\Local\Temp\cc6xb3Hf.s 			page 21


 809              	.LBE12:
 330:Src/MyOLED.c  **** 			{
 810              		.loc 1 330 0 is_stmt 1 discriminator 2
 811 003a 0135     		adds	r5, r5, #1
 812              	.LVL78:
 813              	.L69:
 330:Src/MyOLED.c  **** 			{
 814              		.loc 1 330 0 is_stmt 0 discriminator 1
 815 003c 052D     		cmp	r5, #5
 816 003e 0CDC     		bgt	.L66
 332:Src/MyOLED.c  **** 				for (int ay = 0; ay < 8; ay++)
 817              		.loc 1 332 0 is_stmt 1
 818 0040 A9F12003 		sub	r3, r9, #32
 819 0044 03EB4303 		add	r3, r3, r3, lsl #1
 820 0048 5A00     		lsls	r2, r3, #1
 821 004a 1E4B     		ldr	r3, .L83
 822 004c 1344     		add	r3, r3, r2
 823 004e 13F80580 		ldrb	r8, [r3, r5]	@ zero_extendqisi2
 824              	.LVL79:
 825              	.LBB13:
 333:Src/MyOLED.c  **** 				{
 826              		.loc 1 333 0
 827 0052 0024     		movs	r4, #0
 828 0054 EFE7     		b	.L70
 829              	.LVL80:
 830              	.L67:
 831              	.LBE13:
 832              	.LBE11:
 336:Src/MyOLED.c  **** 				}
 337:Src/MyOLED.c  **** 			}
 338:Src/MyOLED.c  **** 		}
 339:Src/MyOLED.c  **** 		} else if (Fonts == OLED_Char8X16) {
 833              		.loc 1 339 0
 834 0056 012A     		cmp	r2, #1
 835 0058 01D0     		beq	.L81
 836              	.LVL81:
 837              	.L66:
 340:Src/MyOLED.c  **** 		if (y < 49 && x < 122 && charater > 31)
 341:Src/MyOLED.c  **** 		{
 342:Src/MyOLED.c  **** 			for (int ax = 0; ax < 16; ax++)
 343:Src/MyOLED.c  **** 			{
 344:Src/MyOLED.c  **** 				WrData = F8X16[(charater - 32) * 16 + ax];
 345:Src/MyOLED.c  **** 				for (int ay = 0; ay < 8; ay++)
 346:Src/MyOLED.c  **** 				{
 347:Src/MyOLED.c  **** 					ShowDrawDot(x + (ax % 8), y + ay + (int)(ax / 8) * 8, WrData & (1 << ay));
 348:Src/MyOLED.c  **** 				}
 349:Src/MyOLED.c  **** 			}
 350:Src/MyOLED.c  **** 		}
 351:Src/MyOLED.c  **** 	}
 352:Src/MyOLED.c  **** }
 838              		.loc 1 352 0
 839 005a BDE8F883 		pop	{r3, r4, r5, r6, r7, r8, r9, pc}
 840              	.LVL82:
 841              	.L81:
 340:Src/MyOLED.c  **** 		if (y < 49 && x < 122 && charater > 31)
 842              		.loc 1 340 0
 843 005e 3029     		cmp	r1, #48
ARM GAS  C:\Users\ADMINI~1\AppData\Local\Temp\cc6xb3Hf.s 			page 22


 844 0060 FBD8     		bhi	.L66
 340:Src/MyOLED.c  **** 		if (y < 49 && x < 122 && charater > 31)
 845              		.loc 1 340 0 is_stmt 0 discriminator 1
 846 0062 7928     		cmp	r0, #121
 847 0064 F9D8     		bhi	.L66
 340:Src/MyOLED.c  **** 		if (y < 49 && x < 122 && charater > 31)
 848              		.loc 1 340 0 discriminator 2
 849 0066 B9F11F0F 		cmp	r9, #31
 850 006a F6D9     		bls	.L66
 851              	.LBB14:
 342:Src/MyOLED.c  **** 			{
 852              		.loc 1 342 0 is_stmt 1
 853 006c 0024     		movs	r4, #0
 854 006e 1DE0     		b	.L73
 855              	.LVL83:
 856              	.L75:
 857              	.LBB15:
 347:Src/MyOLED.c  **** 				}
 858              		.loc 1 347 0 discriminator 3
 859 0070 0122     		movs	r2, #1
 860 0072 AA40     		lsls	r2, r2, r5
 861 0074 23F00703 		bic	r3, r3, #7
 862 0078 1944     		add	r1, r1, r3
 863 007a 3844     		add	r0, r0, r7
 864 007c 02EA0802 		and	r2, r2, r8
 865 0080 C9B2     		uxtb	r1, r1
 866 0082 C0B2     		uxtb	r0, r0
 867 0084 FFF7FEFF 		bl	ShowDrawDot
 868              	.LVL84:
 345:Src/MyOLED.c  **** 				{
 869              		.loc 1 345 0 discriminator 3
 870 0088 0135     		adds	r5, r5, #1
 871              	.LVL85:
 872              	.L74:
 345:Src/MyOLED.c  **** 				{
 873              		.loc 1 345 0 is_stmt 0 discriminator 1
 874 008a 072D     		cmp	r5, #7
 875 008c 0DDC     		bgt	.L82
 347:Src/MyOLED.c  **** 				}
 876              		.loc 1 347 0 is_stmt 1 discriminator 3
 877 008e 6342     		rsbs	r3, r4, #0
 878 0090 04F00700 		and	r0, r4, #7
 879 0094 03F00703 		and	r3, r3, #7
 880 0098 58BF     		it	pl
 881 009a 5842     		rsbpl	r0, r3, #0
 882 009c 7119     		adds	r1, r6, r5
 883 009e C9B2     		uxtb	r1, r1
 884 00a0 2346     		mov	r3, r4
 885 00a2 002C     		cmp	r4, #0
 886 00a4 E4DA     		bge	.L75
 887              	.LVL86:
 888 00a6 E31D     		adds	r3, r4, #7
 889              	.LVL87:
 890 00a8 E2E7     		b	.L75
 891              	.L82:
 892              	.LBE15:
 342:Src/MyOLED.c  **** 			{
ARM GAS  C:\Users\ADMINI~1\AppData\Local\Temp\cc6xb3Hf.s 			page 23


 893              		.loc 1 342 0 discriminator 2
 894 00aa 0134     		adds	r4, r4, #1
 895              	.LVL88:
 896              	.L73:
 342:Src/MyOLED.c  **** 			{
 897              		.loc 1 342 0 is_stmt 0 discriminator 1
 898 00ac 0F2C     		cmp	r4, #15
 899 00ae D4DC     		bgt	.L66
 344:Src/MyOLED.c  **** 				for (int ay = 0; ay < 8; ay++)
 900              		.loc 1 344 0 is_stmt 1
 901 00b0 A9F12003 		sub	r3, r9, #32
 902 00b4 04EB0313 		add	r3, r4, r3, lsl #4
 903 00b8 034A     		ldr	r2, .L83+4
 904 00ba 12F80380 		ldrb	r8, [r2, r3]	@ zero_extendqisi2
 905              	.LVL89:
 906              	.LBB16:
 345:Src/MyOLED.c  **** 				{
 907              		.loc 1 345 0
 908 00be 0025     		movs	r5, #0
 909 00c0 E3E7     		b	.L74
 910              	.L84:
 911 00c2 00BF     		.align	2
 912              	.L83:
 913 00c4 00000000 		.word	.LANCHOR6
 914 00c8 00000000 		.word	.LANCHOR7
 915              	.LBE16:
 916              	.LBE14:
 917              		.cfi_endproc
 918              	.LFE77:
 920              		.section	.text.ShowDrawString,"ax",%progbits
 921              		.align	1
 922              		.global	ShowDrawString
 923              		.syntax unified
 924              		.thumb
 925              		.thumb_func
 926              		.fpu softvfp
 928              	ShowDrawString:
 929              	.LFB78:
 353:Src/MyOLED.c  **** void ShowDrawString(unsigned char x, unsigned char y, char Fonts, char* Strings){
 930              		.loc 1 353 0
 931              		.cfi_startproc
 932              		@ args = 0, pretend = 0, frame = 0
 933              		@ frame_needed = 0, uses_anonymous_args = 0
 934              	.LVL90:
 935 0000 2DE9F041 		push	{r4, r5, r6, r7, r8, lr}
 936              	.LCFI11:
 937              		.cfi_def_cfa_offset 24
 938              		.cfi_offset 4, -24
 939              		.cfi_offset 5, -20
 940              		.cfi_offset 6, -16
 941              		.cfi_offset 7, -12
 942              		.cfi_offset 8, -8
 943              		.cfi_offset 14, -4
 944 0004 0446     		mov	r4, r0
 945 0006 8846     		mov	r8, r1
 946 0008 1646     		mov	r6, r2
 947 000a 1F46     		mov	r7, r3
ARM GAS  C:\Users\ADMINI~1\AppData\Local\Temp\cc6xb3Hf.s 			page 24


 948              	.LVL91:
 949              	.LBB17:
 354:Src/MyOLED.c  **** 	for (int a = 0; Strings[a]; a++)
 950              		.loc 1 354 0
 951 000c 0025     		movs	r5, #0
 952 000e 02E0     		b	.L86
 953              	.LVL92:
 954              	.L87:
 355:Src/MyOLED.c  **** 	{
 356:Src/MyOLED.c  **** 		ShowDrawChar(x, y, Fonts, Strings[a]);
 357:Src/MyOLED.c  **** 		if (Fonts == OLED_Char6X8)x += 6;
 358:Src/MyOLED.c  **** 		if (Fonts == OLED_Char8X16)x += 8;
 955              		.loc 1 358 0
 956 0010 012E     		cmp	r6, #1
 957 0012 0CD0     		beq	.L91
 958              	.L88:
 354:Src/MyOLED.c  **** 	for (int a = 0; Strings[a]; a++)
 959              		.loc 1 354 0 discriminator 2
 960 0014 0135     		adds	r5, r5, #1
 961              	.LVL93:
 962              	.L86:
 354:Src/MyOLED.c  **** 	for (int a = 0; Strings[a]; a++)
 963              		.loc 1 354 0 is_stmt 0 discriminator 1
 964 0016 7B5D     		ldrb	r3, [r7, r5]	@ zero_extendqisi2
 965 0018 63B1     		cbz	r3, .L92
 356:Src/MyOLED.c  **** 		if (Fonts == OLED_Char6X8)x += 6;
 966              		.loc 1 356 0 is_stmt 1
 967 001a 3246     		mov	r2, r6
 968 001c 4146     		mov	r1, r8
 969 001e 2046     		mov	r0, r4
 970 0020 FFF7FEFF 		bl	ShowDrawChar
 971              	.LVL94:
 357:Src/MyOLED.c  **** 		if (Fonts == OLED_Char8X16)x += 8;
 972              		.loc 1 357 0
 973 0024 002E     		cmp	r6, #0
 974 0026 F3D1     		bne	.L87
 357:Src/MyOLED.c  **** 		if (Fonts == OLED_Char8X16)x += 8;
 975              		.loc 1 357 0 is_stmt 0 discriminator 1
 976 0028 0634     		adds	r4, r4, #6
 977              	.LVL95:
 978 002a E4B2     		uxtb	r4, r4
 979              	.LVL96:
 980 002c F0E7     		b	.L87
 981              	.L91:
 982              		.loc 1 358 0 is_stmt 1 discriminator 1
 983 002e 0834     		adds	r4, r4, #8
 984              	.LVL97:
 985 0030 E4B2     		uxtb	r4, r4
 986              	.LVL98:
 987 0032 EFE7     		b	.L88
 988              	.L92:
 989              	.LBE17:
 359:Src/MyOLED.c  **** 	}
 360:Src/MyOLED.c  **** }
 990              		.loc 1 360 0
 991 0034 BDE8F081 		pop	{r4, r5, r6, r7, r8, pc}
 992              		.cfi_endproc
ARM GAS  C:\Users\ADMINI~1\AppData\Local\Temp\cc6xb3Hf.s 			page 25


 993              	.LFE78:
 995              		.section	.text.NoShowDrawDot,"ax",%progbits
 996              		.align	1
 997              		.global	NoShowDrawDot
 998              		.syntax unified
 999              		.thumb
 1000              		.thumb_func
 1001              		.fpu softvfp
 1003              	NoShowDrawDot:
 1004              	.LFB79:
 361:Src/MyOLED.c  **** void NoShowDrawDot(unsigned char x, unsigned char y, unsigned char OnOff){
 1005              		.loc 1 361 0
 1006              		.cfi_startproc
 1007              		@ args = 0, pretend = 0, frame = 0
 1008              		@ frame_needed = 0, uses_anonymous_args = 0
 1009              		@ link register save eliminated.
 1010              	.LVL99:
 362:Src/MyOLED.c  **** 	x = x + 1;
 363:Src/MyOLED.c  **** 	if (y < 64 && x < 132)
 1011              		.loc 1 363 0
 1012 0000 3F29     		cmp	r1, #63
 1013 0002 1FD8     		bhi	.L97
 1014 0004 0130     		adds	r0, r0, #1
 1015              	.LVL100:
 1016 0006 C0B2     		uxtb	r0, r0
 1017              		.loc 1 363 0 is_stmt 0 discriminator 1
 1018 0008 8328     		cmp	r0, #131
 1019 000a 1BD8     		bhi	.L97
 361:Src/MyOLED.c  **** void NoShowDrawDot(unsigned char x, unsigned char y, unsigned char OnOff){
 1020              		.loc 1 361 0 is_stmt 1
 1021 000c 10B4     		push	{r4}
 1022              	.LCFI12:
 1023              		.cfi_def_cfa_offset 4
 1024              		.cfi_offset 4, -4
 364:Src/MyOLED.c  **** 	{
 365:Src/MyOLED.c  **** 		if(OnOff)Dot_Data[x][y/8] |= (1 << (y%8));
 1025              		.loc 1 365 0
 1026 000e 6AB9     		cbnz	r2, .L100
 366:Src/MyOLED.c  **** 		else Dot_Data[x][y/8] &= ~(1 << (y%8));
 1027              		.loc 1 366 0
 1028 0010 CC08     		lsrs	r4, r1, #3
 1029 0012 01F00701 		and	r1, r1, #7
 1030              	.LVL101:
 1031 0016 0122     		movs	r2, #1
 1032              	.LVL102:
 1033 0018 8A40     		lsls	r2, r2, r1
 1034 001a 0B4B     		ldr	r3, .L101
 1035 001c 03EBC000 		add	r0, r3, r0, lsl #3
 1036 0020 015D     		ldrb	r1, [r0, r4]	@ zero_extendqisi2
 1037 0022 21EA0201 		bic	r1, r1, r2
 1038 0026 0155     		strb	r1, [r0, r4]
 1039              	.L93:
 367:Src/MyOLED.c  **** 	}
 368:Src/MyOLED.c  **** }
 1040              		.loc 1 368 0
 1041 0028 10BC     		pop	{r4}
 1042              	.LCFI13:
ARM GAS  C:\Users\ADMINI~1\AppData\Local\Temp\cc6xb3Hf.s 			page 26


 1043              		.cfi_remember_state
 1044              		.cfi_restore 4
 1045              		.cfi_def_cfa_offset 0
 1046 002a 7047     		bx	lr
 1047              	.LVL103:
 1048              	.L100:
 1049              	.LCFI14:
 1050              		.cfi_restore_state
 365:Src/MyOLED.c  **** 		else Dot_Data[x][y/8] &= ~(1 << (y%8));
 1051              		.loc 1 365 0 discriminator 1
 1052 002c CC08     		lsrs	r4, r1, #3
 1053 002e 01F00701 		and	r1, r1, #7
 1054              	.LVL104:
 1055 0032 0122     		movs	r2, #1
 1056              	.LVL105:
 1057 0034 8A40     		lsls	r2, r2, r1
 1058 0036 044B     		ldr	r3, .L101
 1059 0038 03EBC000 		add	r0, r3, r0, lsl #3
 1060 003c 015D     		ldrb	r1, [r0, r4]	@ zero_extendqisi2
 1061 003e 1143     		orrs	r1, r1, r2
 1062 0040 0155     		strb	r1, [r0, r4]
 1063 0042 F1E7     		b	.L93
 1064              	.LVL106:
 1065              	.L97:
 1066              	.LCFI15:
 1067              		.cfi_def_cfa_offset 0
 1068              		.cfi_restore 4
 1069 0044 7047     		bx	lr
 1070              	.L102:
 1071 0046 00BF     		.align	2
 1072              	.L101:
 1073 0048 00000000 		.word	Dot_Data
 1074              		.cfi_endproc
 1075              	.LFE79:
 1077              		.section	.text.NoShowDrawLine,"ax",%progbits
 1078              		.align	1
 1079              		.global	NoShowDrawLine
 1080              		.syntax unified
 1081              		.thumb
 1082              		.thumb_func
 1083              		.fpu softvfp
 1085              	NoShowDrawLine:
 1086              	.LFB80:
 369:Src/MyOLED.c  **** void NoShowDrawLine(unsigned char x0, unsigned char y0, unsigned char x1, unsigned char y1, unsigne
 1087              		.loc 1 369 0
 1088              		.cfi_startproc
 1089              		@ args = 4, pretend = 0, frame = 8
 1090              		@ frame_needed = 0, uses_anonymous_args = 0
 1091              	.LVL107:
 1092 0000 2DE9F04F 		push	{r4, r5, r6, r7, r8, r9, r10, fp, lr}
 1093              	.LCFI16:
 1094              		.cfi_def_cfa_offset 36
 1095              		.cfi_offset 4, -36
 1096              		.cfi_offset 5, -32
 1097              		.cfi_offset 6, -28
 1098              		.cfi_offset 7, -24
 1099              		.cfi_offset 8, -20
ARM GAS  C:\Users\ADMINI~1\AppData\Local\Temp\cc6xb3Hf.s 			page 27


 1100              		.cfi_offset 9, -16
 1101              		.cfi_offset 10, -12
 1102              		.cfi_offset 11, -8
 1103              		.cfi_offset 14, -4
 1104 0004 83B0     		sub	sp, sp, #12
 1105              	.LCFI17:
 1106              		.cfi_def_cfa_offset 48
 1107 0006 0446     		mov	r4, r0
 1108 0008 0E46     		mov	r6, r1
 1109 000a 9146     		mov	r9, r2
 1110 000c 0193     		str	r3, [sp, #4]
 1111 000e 9DF83030 		ldrb	r3, [sp, #48]	@ zero_extendqisi2
 1112              	.LVL108:
 1113 0012 0093     		str	r3, [sp]
 370:Src/MyOLED.c  **** 	int dx = abs(x1 - x0), sx = x0 < x1 ? 1 : -1;
 1114              		.loc 1 370 0
 1115 0014 171A     		subs	r7, r2, r0
 1116 0016 002F     		cmp	r7, #0
 1117 0018 B8BF     		it	lt
 1118 001a 7F42     		rsblt	r7, r7, #0
 1119              	.LVL109:
 1120 001c 8242     		cmp	r2, r0
 1121 001e 15D9     		bls	.L113
 1122 0020 4FF0010A 		mov	r10, #1
 1123              	.L104:
 1124              	.LVL110:
 371:Src/MyOLED.c  **** 	int dy = abs(y1 - y0), sy = y0 < y1 ? 1 : -1;
 1125              		.loc 1 371 0 discriminator 4
 1126 0024 019B     		ldr	r3, [sp, #4]
 1127 0026 A3EB0608 		sub	r8, r3, r6
 1128 002a B8F1000F 		cmp	r8, #0
 1129 002e B8BF     		it	lt
 1130 0030 C8F10008 		rsblt	r8, r8, #0
 1131              	.LVL111:
 1132 0034 B342     		cmp	r3, r6
 1133 0036 0CD9     		bls	.L114
 1134              		.loc 1 371 0 is_stmt 0
 1135 0038 4FF0010B 		mov	fp, #1
 1136              	.L105:
 1137              	.LVL112:
 372:Src/MyOLED.c  **** 	int err = (dx > dy ? dx : -dy) / 2, e2;
 1138              		.loc 1 372 0 is_stmt 1 discriminator 4
 1139 003c 4745     		cmp	r7, r8
 1140 003e 0BDC     		bgt	.L106
 1141              		.loc 1 372 0 is_stmt 0 discriminator 1
 1142 0040 C8F10005 		rsb	r5, r8, #0
 1143 0044 05EBD575 		add	r5, r5, r5, lsr #31
 1144 0048 6D10     		asrs	r5, r5, #1
 1145 004a 0AE0     		b	.L107
 1146              	.LVL113:
 1147              	.L113:
 370:Src/MyOLED.c  **** 	int dx = abs(x1 - x0), sx = x0 < x1 ? 1 : -1;
 1148              		.loc 1 370 0 is_stmt 1
 1149 004c 4FF0FF3A 		mov	r10, #-1
 1150 0050 E8E7     		b	.L104
 1151              	.LVL114:
 1152              	.L114:
ARM GAS  C:\Users\ADMINI~1\AppData\Local\Temp\cc6xb3Hf.s 			page 28


 371:Src/MyOLED.c  **** 	int dy = abs(y1 - y0), sy = y0 < y1 ? 1 : -1;
 1153              		.loc 1 371 0
 1154 0052 4FF0FF3B 		mov	fp, #-1
 1155 0056 F1E7     		b	.L105
 1156              	.LVL115:
 1157              	.L106:
 1158              		.loc 1 372 0 discriminator 2
 1159 0058 07EBD775 		add	r5, r7, r7, lsr #31
 1160 005c 6D10     		asrs	r5, r5, #1
 1161 005e 00E0     		b	.L107
 1162              	.LVL116:
 1163              	.L112:
 371:Src/MyOLED.c  **** 	int dy = abs(y1 - y0), sy = y0 < y1 ? 1 : -1;
 1164              		.loc 1 371 0
 1165 0060 1D46     		mov	r5, r3
 1166              	.LVL117:
 1167              	.L107:
 373:Src/MyOLED.c  **** 
 374:Src/MyOLED.c  **** 	while (1)
 375:Src/MyOLED.c  **** 	{
 376:Src/MyOLED.c  **** 		NoShowDrawDot(x0, y0, OnOff);
 1168              		.loc 1 376 0
 1169 0062 009A     		ldr	r2, [sp]
 1170 0064 3146     		mov	r1, r6
 1171 0066 2046     		mov	r0, r4
 1172 0068 FFF7FEFF 		bl	NoShowDrawDot
 1173              	.LVL118:
 377:Src/MyOLED.c  **** 		if (x0 == x1 && y0 == y1)
 1174              		.loc 1 377 0
 1175 006c 4C45     		cmp	r4, r9
 1176 006e 0CD0     		beq	.L117
 1177              	.L109:
 1178              	.LVL119:
 378:Src/MyOLED.c  **** 		break;
 379:Src/MyOLED.c  **** 		e2 = err;
 380:Src/MyOLED.c  **** 		if (e2 > -dx)
 1179              		.loc 1 380 0
 1180 0070 7B42     		negs	r3, r7
 1181 0072 AB42     		cmp	r3, r5
 1182 0074 0FDA     		bge	.L115
 381:Src/MyOLED.c  **** 		{
 382:Src/MyOLED.c  **** 			err -= dy;
 1183              		.loc 1 382 0
 1184 0076 A5EB0803 		sub	r3, r5, r8
 1185              	.LVL120:
 383:Src/MyOLED.c  **** 			x0 += sx;
 1186              		.loc 1 383 0
 1187 007a 5444     		add	r4, r4, r10
 1188              	.LVL121:
 1189 007c E4B2     		uxtb	r4, r4
 1190              	.LVL122:
 1191              	.L111:
 384:Src/MyOLED.c  **** 		}
 385:Src/MyOLED.c  **** 		if (e2 < dy)
 1192              		.loc 1 385 0
 1193 007e 4545     		cmp	r5, r8
 1194 0080 EEDA     		bge	.L112
ARM GAS  C:\Users\ADMINI~1\AppData\Local\Temp\cc6xb3Hf.s 			page 29


 386:Src/MyOLED.c  **** 		{
 387:Src/MyOLED.c  **** 			err += dx;
 1195              		.loc 1 387 0
 1196 0082 3B44     		add	r3, r3, r7
 1197              	.LVL123:
 388:Src/MyOLED.c  **** 			y0 += sy;
 1198              		.loc 1 388 0
 1199 0084 5E44     		add	r6, r6, fp
 1200              	.LVL124:
 1201 0086 F6B2     		uxtb	r6, r6
 1202              	.LVL125:
 1203 0088 EAE7     		b	.L112
 1204              	.LVL126:
 1205              	.L117:
 377:Src/MyOLED.c  **** 		break;
 1206              		.loc 1 377 0 discriminator 1
 1207 008a 019B     		ldr	r3, [sp, #4]
 1208 008c 9E42     		cmp	r6, r3
 1209 008e EFD1     		bne	.L109
 389:Src/MyOLED.c  **** 		}
 390:Src/MyOLED.c  **** 	}
 391:Src/MyOLED.c  **** }
 1210              		.loc 1 391 0
 1211 0090 03B0     		add	sp, sp, #12
 1212              	.LCFI18:
 1213              		.cfi_remember_state
 1214              		.cfi_def_cfa_offset 36
 1215              		@ sp needed
 1216 0092 BDE8F08F 		pop	{r4, r5, r6, r7, r8, r9, r10, fp, pc}
 1217              	.LVL127:
 1218              	.L115:
 1219              	.LCFI19:
 1220              		.cfi_restore_state
 1221 0096 2B46     		mov	r3, r5
 1222 0098 F1E7     		b	.L111
 1223              		.cfi_endproc
 1224              	.LFE80:
 1226              		.section	.text.NoShowDrawNum,"ax",%progbits
 1227              		.align	1
 1228              		.global	NoShowDrawNum
 1229              		.syntax unified
 1230              		.thumb
 1231              		.thumb_func
 1232              		.fpu softvfp
 1234              	NoShowDrawNum:
 1235              	.LFB81:
 392:Src/MyOLED.c  **** void NoShowDrawNum(unsigned char x, unsigned char y, char Fonts, int Num, int EngTrueBigFalseSmall)
 1236              		.loc 1 392 0
 1237              		.cfi_startproc
 1238              		@ args = 4, pretend = 0, frame = 0
 1239              		@ frame_needed = 0, uses_anonymous_args = 0
 1240              	.LVL128:
 1241 0000 2DE9F047 		push	{r4, r5, r6, r7, r8, r9, r10, lr}
 1242              	.LCFI20:
 1243              		.cfi_def_cfa_offset 32
 1244              		.cfi_offset 4, -32
 1245              		.cfi_offset 5, -28
ARM GAS  C:\Users\ADMINI~1\AppData\Local\Temp\cc6xb3Hf.s 			page 30


 1246              		.cfi_offset 6, -24
 1247              		.cfi_offset 7, -20
 1248              		.cfi_offset 8, -16
 1249              		.cfi_offset 9, -12
 1250              		.cfi_offset 10, -8
 1251              		.cfi_offset 14, -4
 1252 0004 0746     		mov	r7, r0
 1253 0006 0E46     		mov	r6, r1
 1254 0008 9A46     		mov	r10, r3
 1255 000a DDF82090 		ldr	r9, [sp, #32]
 1256              	.LVL129:
 393:Src/MyOLED.c  **** 	unsigned char WrData = 0;
 394:Src/MyOLED.c  **** 	if (Fonts == OLED_Char6X8) {
 1257              		.loc 1 394 0
 1258 000e BABB     		cbnz	r2, .L119
 395:Src/MyOLED.c  **** 		if (y < 57 && x < 124 && Num < 16)
 1259              		.loc 1 395 0
 1260 0010 3829     		cmp	r1, #56
 1261 0012 39D8     		bhi	.L118
 1262              		.loc 1 395 0 is_stmt 0 discriminator 1
 1263 0014 7B28     		cmp	r0, #123
 1264 0016 37D8     		bhi	.L118
 1265              		.loc 1 395 0 discriminator 2
 1266 0018 0F2B     		cmp	r3, #15
 1267 001a 35DC     		bgt	.L118
 1268              	.LBB18:
 396:Src/MyOLED.c  **** 		{
 397:Src/MyOLED.c  **** 			for (int ax = 0; ax < 6; ax++)
 1269              		.loc 1 397 0 is_stmt 1
 1270 001c 0025     		movs	r5, #0
 1271              	.LBE18:
 393:Src/MyOLED.c  **** 	if (Fonts == OLED_Char6X8) {
 1272              		.loc 1 393 0
 1273 001e A846     		mov	r8, r5
 1274 0020 1AE0     		b	.L121
 1275              	.LVL130:
 1276              	.L143:
 1277              	.LBB20:
 398:Src/MyOLED.c  **** 			{
 399:Src/MyOLED.c  **** 				if (EngTrueBigFalseSmall == 1)WrData = F6x8[NumToBigCharStr[Num] - 32][ax];
 1278              		.loc 1 399 0 discriminator 1
 1279 0022 4D4B     		ldr	r3, .L148
 1280 0024 13F80A30 		ldrb	r3, [r3, r10]	@ zero_extendqisi2
 1281 0028 203B     		subs	r3, r3, #32
 1282 002a 03EB4303 		add	r3, r3, r3, lsl #1
 1283 002e 5A00     		lsls	r2, r3, #1
 1284 0030 4A4B     		ldr	r3, .L148+4
 1285 0032 1344     		add	r3, r3, r2
 1286 0034 13F80580 		ldrb	r8, [r3, r5]	@ zero_extendqisi2
 1287              	.LVL131:
 1288              	.L123:
 1289              	.LBB19:
 400:Src/MyOLED.c  **** 				else if (EngTrueBigFalseSmall == 0)WrData = F6x8[NumToSmallCharStr[Num] - 32][ax];
 401:Src/MyOLED.c  **** 				for (int ay = 0; ay < 8; ay++)
 1290              		.loc 1 401 0
 1291 0038 0024     		movs	r4, #0
 1292 003a 0AE0     		b	.L124
ARM GAS  C:\Users\ADMINI~1\AppData\Local\Temp\cc6xb3Hf.s 			page 31


 1293              	.LVL132:
 1294              	.L125:
 402:Src/MyOLED.c  **** 				{
 403:Src/MyOLED.c  **** 					NoShowDrawDot(x + ax, y + ay, WrData & (1 << ay));
 1295              		.loc 1 403 0 discriminator 3
 1296 003c 0122     		movs	r2, #1
 1297 003e A240     		lsls	r2, r2, r4
 1298 0040 3119     		adds	r1, r6, r4
 1299 0042 7819     		adds	r0, r7, r5
 1300 0044 02EA0802 		and	r2, r2, r8
 1301 0048 C9B2     		uxtb	r1, r1
 1302 004a C0B2     		uxtb	r0, r0
 1303 004c FFF7FEFF 		bl	NoShowDrawDot
 1304              	.LVL133:
 401:Src/MyOLED.c  **** 				{
 1305              		.loc 1 401 0 discriminator 3
 1306 0050 0134     		adds	r4, r4, #1
 1307              	.LVL134:
 1308              	.L124:
 401:Src/MyOLED.c  **** 				{
 1309              		.loc 1 401 0 is_stmt 0 discriminator 1
 1310 0052 072C     		cmp	r4, #7
 1311 0054 F2DD     		ble	.L125
 1312              	.LBE19:
 397:Src/MyOLED.c  **** 			{
 1313              		.loc 1 397 0 is_stmt 1 discriminator 2
 1314 0056 0135     		adds	r5, r5, #1
 1315              	.LVL135:
 1316              	.L121:
 397:Src/MyOLED.c  **** 			{
 1317              		.loc 1 397 0 is_stmt 0 discriminator 1
 1318 0058 052D     		cmp	r5, #5
 1319 005a 15DC     		bgt	.L118
 399:Src/MyOLED.c  **** 				else if (EngTrueBigFalseSmall == 0)WrData = F6x8[NumToSmallCharStr[Num] - 32][ax];
 1320              		.loc 1 399 0 is_stmt 1
 1321 005c B9F1010F 		cmp	r9, #1
 1322 0060 DFD0     		beq	.L143
 400:Src/MyOLED.c  **** 				for (int ay = 0; ay < 8; ay++)
 1323              		.loc 1 400 0
 1324 0062 B9F1000F 		cmp	r9, #0
 1325 0066 E7D1     		bne	.L123
 400:Src/MyOLED.c  **** 				for (int ay = 0; ay < 8; ay++)
 1326              		.loc 1 400 0 is_stmt 0 discriminator 1
 1327 0068 3D4B     		ldr	r3, .L148+8
 1328 006a 13F80A30 		ldrb	r3, [r3, r10]	@ zero_extendqisi2
 1329 006e 203B     		subs	r3, r3, #32
 1330 0070 03EB4303 		add	r3, r3, r3, lsl #1
 1331 0074 5A00     		lsls	r2, r3, #1
 1332 0076 394B     		ldr	r3, .L148+4
 1333 0078 1344     		add	r3, r3, r2
 1334 007a 13F80580 		ldrb	r8, [r3, r5]	@ zero_extendqisi2
 1335              	.LVL136:
 1336 007e DBE7     		b	.L123
 1337              	.LVL137:
 1338              	.L119:
 1339              	.LBE20:
 404:Src/MyOLED.c  **** 				}
ARM GAS  C:\Users\ADMINI~1\AppData\Local\Temp\cc6xb3Hf.s 			page 32


 405:Src/MyOLED.c  **** 			}
 406:Src/MyOLED.c  **** 		}
 407:Src/MyOLED.c  **** 		} else if (Fonts == OLED_Char8X16) {
 1340              		.loc 1 407 0 is_stmt 1
 1341 0080 012A     		cmp	r2, #1
 1342 0082 03D0     		beq	.L144
 408:Src/MyOLED.c  **** 		if (y < 49 && x < 122 && Num < 16)
 409:Src/MyOLED.c  **** 		{
 410:Src/MyOLED.c  **** 			for (int ax = 0; ax < 16; ax++)
 411:Src/MyOLED.c  **** 			{
 412:Src/MyOLED.c  **** 				if (EngTrueBigFalseSmall == 1)WrData = F8X16[(NumToBigCharStr[Num] - 32) * 16 + ax];
 413:Src/MyOLED.c  **** 				else if (EngTrueBigFalseSmall == 0)WrData = F8X16[(NumToSmallCharStr[Num] - 32) * 16 + ax];
 414:Src/MyOLED.c  **** 				for (int ay = 0; ay < 8; ay++)
 415:Src/MyOLED.c  **** 				{
 416:Src/MyOLED.c  **** 					NoShowDrawDot(x + (ax % 8), y + ay + (int)(ax / 8) * 8, WrData & (1 << ay));
 417:Src/MyOLED.c  **** 				}
 418:Src/MyOLED.c  **** 			}
 419:Src/MyOLED.c  **** 		}
 420:Src/MyOLED.c  **** 		} else if (Fonts == OLED_Num3X5) {
 1343              		.loc 1 420 0
 1344 0084 022A     		cmp	r2, #2
 1345 0086 46D0     		beq	.L145
 1346              	.LVL138:
 1347              	.L118:
 421:Src/MyOLED.c  **** 		if (y < 59 && x < 127 && Num < 16)
 422:Src/MyOLED.c  **** 		{
 423:Src/MyOLED.c  **** 			for (int ax = 0; ax < 3; ax++)
 424:Src/MyOLED.c  **** 			{
 425:Src/MyOLED.c  **** 				WrData = NumF3x5[Num][ax];
 426:Src/MyOLED.c  **** 				for (int ay = 0; ay < 5; ay++)
 427:Src/MyOLED.c  **** 				{
 428:Src/MyOLED.c  **** 					NoShowDrawDot(x + ax, y + ay, WrData & (1 << ay));
 429:Src/MyOLED.c  **** 				}
 430:Src/MyOLED.c  **** 			}
 431:Src/MyOLED.c  **** 		}
 432:Src/MyOLED.c  **** 	}
 433:Src/MyOLED.c  **** }
 1348              		.loc 1 433 0
 1349 0088 BDE8F087 		pop	{r4, r5, r6, r7, r8, r9, r10, pc}
 1350              	.LVL139:
 1351              	.L144:
 408:Src/MyOLED.c  **** 		if (y < 49 && x < 122 && Num < 16)
 1352              		.loc 1 408 0
 1353 008c 3029     		cmp	r1, #48
 1354 008e FBD8     		bhi	.L118
 408:Src/MyOLED.c  **** 		if (y < 49 && x < 122 && Num < 16)
 1355              		.loc 1 408 0 is_stmt 0 discriminator 1
 1356 0090 7928     		cmp	r0, #121
 1357 0092 F9D8     		bhi	.L118
 408:Src/MyOLED.c  **** 		if (y < 49 && x < 122 && Num < 16)
 1358              		.loc 1 408 0 discriminator 2
 1359 0094 BAF10F0F 		cmp	r10, #15
 1360 0098 F6DC     		bgt	.L118
 1361              	.LBB21:
 410:Src/MyOLED.c  **** 			{
 1362              		.loc 1 410 0 is_stmt 1
 1363 009a 0024     		movs	r4, #0
ARM GAS  C:\Users\ADMINI~1\AppData\Local\Temp\cc6xb3Hf.s 			page 33


 1364              	.LBE21:
 393:Src/MyOLED.c  **** 	if (Fonts == OLED_Char6X8) {
 1365              		.loc 1 393 0
 1366 009c A046     		mov	r8, r4
 1367 009e 28E0     		b	.L128
 1368              	.LVL140:
 1369              	.L147:
 1370              	.LBB23:
 412:Src/MyOLED.c  **** 				else if (EngTrueBigFalseSmall == 0)WrData = F8X16[(NumToSmallCharStr[Num] - 32) * 16 + ax];
 1371              		.loc 1 412 0 discriminator 1
 1372 00a0 2D4B     		ldr	r3, .L148
 1373 00a2 13F80A30 		ldrb	r3, [r3, r10]	@ zero_extendqisi2
 1374 00a6 203B     		subs	r3, r3, #32
 1375 00a8 04EB0313 		add	r3, r4, r3, lsl #4
 1376 00ac 2D4A     		ldr	r2, .L148+12
 1377 00ae 12F80380 		ldrb	r8, [r2, r3]	@ zero_extendqisi2
 1378              	.LVL141:
 1379              	.L130:
 1380              	.LBB22:
 414:Src/MyOLED.c  **** 				{
 1381              		.loc 1 414 0
 1382 00b2 0025     		movs	r5, #0
 1383 00b4 0CE0     		b	.L131
 1384              	.LVL142:
 1385              	.L132:
 416:Src/MyOLED.c  **** 				}
 1386              		.loc 1 416 0 discriminator 3
 1387 00b6 0122     		movs	r2, #1
 1388 00b8 AA40     		lsls	r2, r2, r5
 1389 00ba 23F00703 		bic	r3, r3, #7
 1390 00be 1944     		add	r1, r1, r3
 1391 00c0 3844     		add	r0, r0, r7
 1392 00c2 02EA0802 		and	r2, r2, r8
 1393 00c6 C9B2     		uxtb	r1, r1
 1394 00c8 C0B2     		uxtb	r0, r0
 1395 00ca FFF7FEFF 		bl	NoShowDrawDot
 1396              	.LVL143:
 414:Src/MyOLED.c  **** 				{
 1397              		.loc 1 414 0 discriminator 3
 1398 00ce 0135     		adds	r5, r5, #1
 1399              	.LVL144:
 1400              	.L131:
 414:Src/MyOLED.c  **** 				{
 1401              		.loc 1 414 0 is_stmt 0 discriminator 1
 1402 00d0 072D     		cmp	r5, #7
 1403 00d2 0DDC     		bgt	.L146
 416:Src/MyOLED.c  **** 				}
 1404              		.loc 1 416 0 is_stmt 1 discriminator 3
 1405 00d4 6342     		rsbs	r3, r4, #0
 1406 00d6 04F00700 		and	r0, r4, #7
 1407 00da 03F00703 		and	r3, r3, #7
 1408 00de 58BF     		it	pl
 1409 00e0 5842     		rsbpl	r0, r3, #0
 1410 00e2 7119     		adds	r1, r6, r5
 1411 00e4 C9B2     		uxtb	r1, r1
 1412 00e6 2346     		mov	r3, r4
 1413 00e8 002C     		cmp	r4, #0
ARM GAS  C:\Users\ADMINI~1\AppData\Local\Temp\cc6xb3Hf.s 			page 34


 1414 00ea E4DA     		bge	.L132
 1415              	.LVL145:
 1416 00ec E31D     		adds	r3, r4, #7
 1417              	.LVL146:
 1418 00ee E2E7     		b	.L132
 1419              	.L146:
 1420              	.LBE22:
 410:Src/MyOLED.c  **** 			{
 1421              		.loc 1 410 0 discriminator 2
 1422 00f0 0134     		adds	r4, r4, #1
 1423              	.LVL147:
 1424              	.L128:
 410:Src/MyOLED.c  **** 			{
 1425              		.loc 1 410 0 is_stmt 0 discriminator 1
 1426 00f2 0F2C     		cmp	r4, #15
 1427 00f4 C8DC     		bgt	.L118
 412:Src/MyOLED.c  **** 				else if (EngTrueBigFalseSmall == 0)WrData = F8X16[(NumToSmallCharStr[Num] - 32) * 16 + ax];
 1428              		.loc 1 412 0 is_stmt 1
 1429 00f6 B9F1010F 		cmp	r9, #1
 1430 00fa D1D0     		beq	.L147
 413:Src/MyOLED.c  **** 				for (int ay = 0; ay < 8; ay++)
 1431              		.loc 1 413 0
 1432 00fc B9F1000F 		cmp	r9, #0
 1433 0100 D7D1     		bne	.L130
 413:Src/MyOLED.c  **** 				for (int ay = 0; ay < 8; ay++)
 1434              		.loc 1 413 0 is_stmt 0 discriminator 1
 1435 0102 174B     		ldr	r3, .L148+8
 1436 0104 13F80A30 		ldrb	r3, [r3, r10]	@ zero_extendqisi2
 1437 0108 203B     		subs	r3, r3, #32
 1438 010a 04EB0313 		add	r3, r4, r3, lsl #4
 1439 010e 154A     		ldr	r2, .L148+12
 1440 0110 12F80380 		ldrb	r8, [r2, r3]	@ zero_extendqisi2
 1441              	.LVL148:
 1442 0114 CDE7     		b	.L130
 1443              	.LVL149:
 1444              	.L145:
 1445              	.LBE23:
 421:Src/MyOLED.c  **** 		{
 1446              		.loc 1 421 0 is_stmt 1
 1447 0116 3A29     		cmp	r1, #58
 1448 0118 B6D8     		bhi	.L118
 421:Src/MyOLED.c  **** 		{
 1449              		.loc 1 421 0 is_stmt 0 discriminator 1
 1450 011a 7E28     		cmp	r0, #126
 1451 011c B4D8     		bhi	.L118
 421:Src/MyOLED.c  **** 		{
 1452              		.loc 1 421 0 discriminator 2
 1453 011e BAF10F0F 		cmp	r10, #15
 1454 0122 B1DC     		bgt	.L118
 1455              	.LBB24:
 423:Src/MyOLED.c  **** 			{
 1456              		.loc 1 423 0 is_stmt 1
 1457 0124 0025     		movs	r5, #0
 1458 0126 0DE0     		b	.L135
 1459              	.LVL150:
 1460              	.L137:
 1461              	.LBB25:
ARM GAS  C:\Users\ADMINI~1\AppData\Local\Temp\cc6xb3Hf.s 			page 35


 428:Src/MyOLED.c  **** 				}
 1462              		.loc 1 428 0 discriminator 3
 1463 0128 0122     		movs	r2, #1
 1464 012a A240     		lsls	r2, r2, r4
 1465 012c 3119     		adds	r1, r6, r4
 1466 012e 7819     		adds	r0, r7, r5
 1467 0130 02EA0802 		and	r2, r2, r8
 1468 0134 C9B2     		uxtb	r1, r1
 1469 0136 C0B2     		uxtb	r0, r0
 1470 0138 FFF7FEFF 		bl	NoShowDrawDot
 1471              	.LVL151:
 426:Src/MyOLED.c  **** 				{
 1472              		.loc 1 426 0 discriminator 3
 1473 013c 0134     		adds	r4, r4, #1
 1474              	.LVL152:
 1475              	.L136:
 426:Src/MyOLED.c  **** 				{
 1476              		.loc 1 426 0 is_stmt 0 discriminator 1
 1477 013e 042C     		cmp	r4, #4
 1478 0140 F2DD     		ble	.L137
 1479              	.LBE25:
 423:Src/MyOLED.c  **** 			{
 1480              		.loc 1 423 0 is_stmt 1 discriminator 2
 1481 0142 0135     		adds	r5, r5, #1
 1482              	.LVL153:
 1483              	.L135:
 423:Src/MyOLED.c  **** 			{
 1484              		.loc 1 423 0 is_stmt 0 discriminator 1
 1485 0144 022D     		cmp	r5, #2
 1486 0146 9FDC     		bgt	.L118
 425:Src/MyOLED.c  **** 				for (int ay = 0; ay < 5; ay++)
 1487              		.loc 1 425 0 is_stmt 1
 1488 0148 0AEB4A02 		add	r2, r10, r10, lsl #1
 1489 014c 064B     		ldr	r3, .L148+16
 1490 014e 1344     		add	r3, r3, r2
 1491 0150 13F80580 		ldrb	r8, [r3, r5]	@ zero_extendqisi2
 1492              	.LVL154:
 1493              	.LBB26:
 426:Src/MyOLED.c  **** 				{
 1494              		.loc 1 426 0
 1495 0154 0024     		movs	r4, #0
 1496 0156 F2E7     		b	.L136
 1497              	.L149:
 1498              		.align	2
 1499              	.L148:
 1500 0158 00000000 		.word	.LANCHOR8
 1501 015c 00000000 		.word	.LANCHOR6
 1502 0160 00000000 		.word	.LANCHOR9
 1503 0164 00000000 		.word	.LANCHOR7
 1504 0168 00000000 		.word	.LANCHOR10
 1505              	.LBE26:
 1506              	.LBE24:
 1507              		.cfi_endproc
 1508              	.LFE81:
 1510              		.section	.text.NoShowDrawNum1,"ax",%progbits
 1511              		.align	1
 1512              		.global	NoShowDrawNum1
ARM GAS  C:\Users\ADMINI~1\AppData\Local\Temp\cc6xb3Hf.s 			page 36


 1513              		.syntax unified
 1514              		.thumb
 1515              		.thumb_func
 1516              		.fpu softvfp
 1518              	NoShowDrawNum1:
 1519              	.LFB82:
 434:Src/MyOLED.c  **** void NoShowDrawNum1(unsigned char x, unsigned char y, char Fonts, int Num, unsigned char OnOff, int
 1520              		.loc 1 434 0
 1521              		.cfi_startproc
 1522              		@ args = 8, pretend = 0, frame = 0
 1523              		@ frame_needed = 0, uses_anonymous_args = 0
 1524              	.LVL155:
 1525 0000 2DE9F84F 		push	{r3, r4, r5, r6, r7, r8, r9, r10, fp, lr}
 1526              	.LCFI21:
 1527              		.cfi_def_cfa_offset 40
 1528              		.cfi_offset 3, -40
 1529              		.cfi_offset 4, -36
 1530              		.cfi_offset 5, -32
 1531              		.cfi_offset 6, -28
 1532              		.cfi_offset 7, -24
 1533              		.cfi_offset 8, -20
 1534              		.cfi_offset 9, -16
 1535              		.cfi_offset 10, -12
 1536              		.cfi_offset 11, -8
 1537              		.cfi_offset 14, -4
 1538 0004 0746     		mov	r7, r0
 1539 0006 0E46     		mov	r6, r1
 1540 0008 9A46     		mov	r10, r3
 1541 000a 9DF82880 		ldrb	r8, [sp, #40]	@ zero_extendqisi2
 1542 000e DDF82C90 		ldr	r9, [sp, #44]
 1543              	.LVL156:
 435:Src/MyOLED.c  **** 	unsigned char WrData = 0;
 436:Src/MyOLED.c  **** 	if (Fonts == OLED_Char6X8) {
 1544              		.loc 1 436 0
 1545 0012 002A     		cmp	r2, #0
 1546 0014 4AD1     		bne	.L151
 437:Src/MyOLED.c  **** 		if (y < 57 && x < 124 && Num < 16)
 1547              		.loc 1 437 0
 1548 0016 3829     		cmp	r1, #56
 1549 0018 4CD8     		bhi	.L150
 1550              		.loc 1 437 0 is_stmt 0 discriminator 1
 1551 001a 7B28     		cmp	r0, #123
 1552 001c 4AD8     		bhi	.L150
 1553              		.loc 1 437 0 discriminator 2
 1554 001e 0F2B     		cmp	r3, #15
 1555 0020 48DC     		bgt	.L150
 1556              	.LBB27:
 438:Src/MyOLED.c  **** 		{
 439:Src/MyOLED.c  **** 			for (int ax = 0; ax < 6; ax++)
 1557              		.loc 1 439 0 is_stmt 1
 1558 0022 0025     		movs	r5, #0
 1559              	.LBE27:
 435:Src/MyOLED.c  **** 	if (Fonts == OLED_Char6X8) {
 1560              		.loc 1 435 0
 1561 0024 AB46     		mov	fp, r5
 1562 0026 2DE0     		b	.L153
 1563              	.LVL157:
ARM GAS  C:\Users\ADMINI~1\AppData\Local\Temp\cc6xb3Hf.s 			page 37


 1564              	.L183:
 1565              	.LBB29:
 440:Src/MyOLED.c  **** 			{
 441:Src/MyOLED.c  **** 				if (EngTrueBigFalseSmall == 1)WrData = F6x8[NumToBigCharStr[Num] - 32][ax];
 1566              		.loc 1 441 0 discriminator 1
 1567 0028 714B     		ldr	r3, .L190
 1568 002a 13F80A30 		ldrb	r3, [r3, r10]	@ zero_extendqisi2
 1569 002e 203B     		subs	r3, r3, #32
 1570 0030 03EB4303 		add	r3, r3, r3, lsl #1
 1571 0034 5A00     		lsls	r2, r3, #1
 1572 0036 6F4B     		ldr	r3, .L190+4
 1573 0038 1344     		add	r3, r3, r2
 1574 003a 13F805B0 		ldrb	fp, [r3, r5]	@ zero_extendqisi2
 1575              	.LVL158:
 1576              	.L155:
 1577              	.LBB28:
 442:Src/MyOLED.c  **** 				else if (EngTrueBigFalseSmall == 0)WrData = F6x8[NumToSmallCharStr[Num] - 32][ax];
 443:Src/MyOLED.c  **** 				for (int ay = 0; ay < 8; ay++)
 1578              		.loc 1 443 0
 1579 003e 0024     		movs	r4, #0
 1580 0040 0FE0     		b	.L156
 1581              	.LVL159:
 1582              	.L157:
 444:Src/MyOLED.c  **** 				{
 445:Src/MyOLED.c  **** 					if (OnOff)NoShowDrawDot(x + ax, y + ay, WrData & (1 << ay));
 446:Src/MyOLED.c  **** 					else NoShowDrawDot(x + ax, y + ay, !(WrData & (1 << ay)));
 1583              		.loc 1 446 0
 1584 0042 4BFA04F3 		asr	r3, fp, r4
 1585 0046 13F0010F 		tst	r3, #1
 1586 004a 06EB0401 		add	r1, r6, r4
 1587 004e 07EB0500 		add	r0, r7, r5
 1588 0052 0CBF     		ite	eq
 1589 0054 0122     		moveq	r2, #1
 1590 0056 0022     		movne	r2, #0
 1591 0058 C9B2     		uxtb	r1, r1
 1592 005a C0B2     		uxtb	r0, r0
 1593 005c FFF7FEFF 		bl	NoShowDrawDot
 1594              	.LVL160:
 1595              	.L158:
 443:Src/MyOLED.c  **** 				{
 1596              		.loc 1 443 0 discriminator 2
 1597 0060 0134     		adds	r4, r4, #1
 1598              	.LVL161:
 1599              	.L156:
 443:Src/MyOLED.c  **** 				{
 1600              		.loc 1 443 0 is_stmt 0 discriminator 1
 1601 0062 072C     		cmp	r4, #7
 1602 0064 0DDC     		bgt	.L182
 445:Src/MyOLED.c  **** 					else NoShowDrawDot(x + ax, y + ay, !(WrData & (1 << ay)));
 1603              		.loc 1 445 0 is_stmt 1
 1604 0066 B8F1000F 		cmp	r8, #0
 1605 006a EAD0     		beq	.L157
 445:Src/MyOLED.c  **** 					else NoShowDrawDot(x + ax, y + ay, !(WrData & (1 << ay)));
 1606              		.loc 1 445 0 is_stmt 0 discriminator 1
 1607 006c 0122     		movs	r2, #1
 1608 006e A240     		lsls	r2, r2, r4
 1609 0070 3119     		adds	r1, r6, r4
ARM GAS  C:\Users\ADMINI~1\AppData\Local\Temp\cc6xb3Hf.s 			page 38


 1610 0072 7819     		adds	r0, r7, r5
 1611 0074 02EA0B02 		and	r2, r2, fp
 1612 0078 C9B2     		uxtb	r1, r1
 1613 007a C0B2     		uxtb	r0, r0
 1614 007c FFF7FEFF 		bl	NoShowDrawDot
 1615              	.LVL162:
 1616 0080 EEE7     		b	.L158
 1617              	.L182:
 1618              	.LBE28:
 439:Src/MyOLED.c  **** 			{
 1619              		.loc 1 439 0 is_stmt 1 discriminator 2
 1620 0082 0135     		adds	r5, r5, #1
 1621              	.LVL163:
 1622              	.L153:
 439:Src/MyOLED.c  **** 			{
 1623              		.loc 1 439 0 is_stmt 0 discriminator 1
 1624 0084 052D     		cmp	r5, #5
 1625 0086 15DC     		bgt	.L150
 441:Src/MyOLED.c  **** 				else if (EngTrueBigFalseSmall == 0)WrData = F6x8[NumToSmallCharStr[Num] - 32][ax];
 1626              		.loc 1 441 0 is_stmt 1
 1627 0088 B9F1010F 		cmp	r9, #1
 1628 008c CCD0     		beq	.L183
 442:Src/MyOLED.c  **** 				for (int ay = 0; ay < 8; ay++)
 1629              		.loc 1 442 0
 1630 008e B9F1000F 		cmp	r9, #0
 1631 0092 D4D1     		bne	.L155
 442:Src/MyOLED.c  **** 				for (int ay = 0; ay < 8; ay++)
 1632              		.loc 1 442 0 is_stmt 0 discriminator 1
 1633 0094 584B     		ldr	r3, .L190+8
 1634 0096 13F80A30 		ldrb	r3, [r3, r10]	@ zero_extendqisi2
 1635 009a 203B     		subs	r3, r3, #32
 1636 009c 03EB4303 		add	r3, r3, r3, lsl #1
 1637 00a0 5A00     		lsls	r2, r3, #1
 1638 00a2 544B     		ldr	r3, .L190+4
 1639 00a4 1344     		add	r3, r3, r2
 1640 00a6 13F805B0 		ldrb	fp, [r3, r5]	@ zero_extendqisi2
 1641              	.LVL164:
 1642 00aa C8E7     		b	.L155
 1643              	.LVL165:
 1644              	.L151:
 1645              	.LBE29:
 447:Src/MyOLED.c  **** 				}
 448:Src/MyOLED.c  **** 			}
 449:Src/MyOLED.c  **** 		}
 450:Src/MyOLED.c  **** 		} else if (Fonts == OLED_Char8X16) {
 1646              		.loc 1 450 0 is_stmt 1
 1647 00ac 012A     		cmp	r2, #1
 1648 00ae 03D0     		beq	.L184
 451:Src/MyOLED.c  **** 		if (y < 49 && x < 122 && Num < 16)
 452:Src/MyOLED.c  **** 		{
 453:Src/MyOLED.c  **** 			for (int ax = 0; ax < 16; ax++)
 454:Src/MyOLED.c  **** 			{
 455:Src/MyOLED.c  **** 				if (EngTrueBigFalseSmall == 1)WrData = F8X16[(NumToBigCharStr[Num] - 32) * 16 + ax];
 456:Src/MyOLED.c  **** 				else if (EngTrueBigFalseSmall == 0)WrData = F8X16[(NumToSmallCharStr[Num] - 32) * 16 + ax];
 457:Src/MyOLED.c  **** 				for (int ay = 0; ay < 8; ay++)
 458:Src/MyOLED.c  **** 				{
 459:Src/MyOLED.c  **** 					if (OnOff)NoShowDrawDot(x + (ax % 8), y + ay + (int)(ax / 8) * 8, WrData & (1 << ay));
ARM GAS  C:\Users\ADMINI~1\AppData\Local\Temp\cc6xb3Hf.s 			page 39


 460:Src/MyOLED.c  **** 					else NoShowDrawDot(x + (ax % 8), y + ay + (int)(ax / 8) * 8, !(WrData & (1 << ay)));
 461:Src/MyOLED.c  **** 				}
 462:Src/MyOLED.c  **** 			}
 463:Src/MyOLED.c  **** 		}
 464:Src/MyOLED.c  **** 		} else if (Fonts == OLED_Num3X5) {
 1649              		.loc 1 464 0
 1650 00b0 022A     		cmp	r2, #2
 1651 00b2 67D0     		beq	.L185
 1652              	.LVL166:
 1653              	.L150:
 465:Src/MyOLED.c  **** 		if (y < 59 && x < 127 && Num < 16)
 466:Src/MyOLED.c  **** 		{
 467:Src/MyOLED.c  **** 			for (int ax = 0; ax < 3; ax++)
 468:Src/MyOLED.c  **** 			{
 469:Src/MyOLED.c  **** 				WrData = NumF3x5[Num][ax];
 470:Src/MyOLED.c  **** 				for (int ay = 0; ay < 5; ay++)
 471:Src/MyOLED.c  **** 				{
 472:Src/MyOLED.c  **** 					if (OnOff)NoShowDrawDot(x + ax, y + ay, WrData & (1 << ay));
 473:Src/MyOLED.c  **** 					else NoShowDrawDot(x + ax, y + ay, !(WrData & (1 << ay)));
 474:Src/MyOLED.c  **** 				}
 475:Src/MyOLED.c  **** 			}
 476:Src/MyOLED.c  **** 		}
 477:Src/MyOLED.c  **** 	}
 478:Src/MyOLED.c  **** }
 1654              		.loc 1 478 0
 1655 00b4 BDE8F88F 		pop	{r3, r4, r5, r6, r7, r8, r9, r10, fp, pc}
 1656              	.LVL167:
 1657              	.L184:
 451:Src/MyOLED.c  **** 		if (y < 49 && x < 122 && Num < 16)
 1658              		.loc 1 451 0
 1659 00b8 3029     		cmp	r1, #48
 1660 00ba FBD8     		bhi	.L150
 451:Src/MyOLED.c  **** 		if (y < 49 && x < 122 && Num < 16)
 1661              		.loc 1 451 0 is_stmt 0 discriminator 1
 1662 00bc 7928     		cmp	r0, #121
 1663 00be F9D8     		bhi	.L150
 451:Src/MyOLED.c  **** 		if (y < 49 && x < 122 && Num < 16)
 1664              		.loc 1 451 0 discriminator 2
 1665 00c0 BAF10F0F 		cmp	r10, #15
 1666 00c4 F6DC     		bgt	.L150
 1667              	.LBB30:
 453:Src/MyOLED.c  **** 			{
 1668              		.loc 1 453 0 is_stmt 1
 1669 00c6 0024     		movs	r4, #0
 1670              	.LBE30:
 435:Src/MyOLED.c  **** 	if (Fonts == OLED_Char6X8) {
 1671              		.loc 1 435 0
 1672 00c8 A346     		mov	fp, r4
 1673 00ca 49E0     		b	.L162
 1674              	.LVL168:
 1675              	.L188:
 1676              	.LBB32:
 455:Src/MyOLED.c  **** 				else if (EngTrueBigFalseSmall == 0)WrData = F8X16[(NumToSmallCharStr[Num] - 32) * 16 + ax];
 1677              		.loc 1 455 0 discriminator 1
 1678 00cc 484B     		ldr	r3, .L190
 1679 00ce 13F80A30 		ldrb	r3, [r3, r10]	@ zero_extendqisi2
 1680 00d2 203B     		subs	r3, r3, #32
ARM GAS  C:\Users\ADMINI~1\AppData\Local\Temp\cc6xb3Hf.s 			page 40


 1681 00d4 04EB0313 		add	r3, r4, r3, lsl #4
 1682 00d8 484A     		ldr	r2, .L190+12
 1683 00da 12F803B0 		ldrb	fp, [r2, r3]	@ zero_extendqisi2
 1684              	.LVL169:
 1685              	.L164:
 1686              	.LBB31:
 457:Src/MyOLED.c  **** 				{
 1687              		.loc 1 457 0
 1688 00de 0025     		movs	r5, #0
 1689 00e0 0CE0     		b	.L165
 1690              	.LVL170:
 1691              	.L167:
 459:Src/MyOLED.c  **** 					else NoShowDrawDot(x + (ax % 8), y + ay + (int)(ax / 8) * 8, !(WrData & (1 << ay)));
 1692              		.loc 1 459 0 discriminator 1
 1693 00e2 0122     		movs	r2, #1
 1694 00e4 AA40     		lsls	r2, r2, r5
 1695 00e6 23F00703 		bic	r3, r3, #7
 1696 00ea 1944     		add	r1, r1, r3
 1697 00ec 3844     		add	r0, r0, r7
 1698 00ee 02EA0B02 		and	r2, r2, fp
 1699 00f2 C9B2     		uxtb	r1, r1
 1700 00f4 C0B2     		uxtb	r0, r0
 1701 00f6 FFF7FEFF 		bl	NoShowDrawDot
 1702              	.LVL171:
 1703              	.L168:
 457:Src/MyOLED.c  **** 				{
 1704              		.loc 1 457 0 discriminator 2
 1705 00fa 0135     		adds	r5, r5, #1
 1706              	.LVL172:
 1707              	.L165:
 457:Src/MyOLED.c  **** 				{
 1708              		.loc 1 457 0 is_stmt 0 discriminator 1
 1709 00fc 072D     		cmp	r5, #7
 1710 00fe 2EDC     		bgt	.L186
 459:Src/MyOLED.c  **** 					else NoShowDrawDot(x + (ax % 8), y + ay + (int)(ax / 8) * 8, !(WrData & (1 << ay)));
 1711              		.loc 1 459 0 is_stmt 1
 1712 0100 B8F1000F 		cmp	r8, #0
 1713 0104 0DD0     		beq	.L166
 459:Src/MyOLED.c  **** 					else NoShowDrawDot(x + (ax % 8), y + ay + (int)(ax / 8) * 8, !(WrData & (1 << ay)));
 1714              		.loc 1 459 0 is_stmt 0 discriminator 1
 1715 0106 6342     		rsbs	r3, r4, #0
 1716 0108 04F00700 		and	r0, r4, #7
 1717 010c 03F00703 		and	r3, r3, #7
 1718 0110 58BF     		it	pl
 1719 0112 5842     		rsbpl	r0, r3, #0
 1720 0114 7119     		adds	r1, r6, r5
 1721 0116 C9B2     		uxtb	r1, r1
 1722 0118 2346     		mov	r3, r4
 1723 011a 002C     		cmp	r4, #0
 1724 011c E1DA     		bge	.L167
 1725              	.LVL173:
 1726 011e E31D     		adds	r3, r4, #7
 1727              	.LVL174:
 1728 0120 DFE7     		b	.L167
 1729              	.L166:
 460:Src/MyOLED.c  **** 				}
 1730              		.loc 1 460 0 is_stmt 1
ARM GAS  C:\Users\ADMINI~1\AppData\Local\Temp\cc6xb3Hf.s 			page 41


 1731 0122 6342     		rsbs	r3, r4, #0
 1732 0124 04F00700 		and	r0, r4, #7
 1733 0128 03F00703 		and	r3, r3, #7
 1734 012c 58BF     		it	pl
 1735 012e 5842     		rsbpl	r0, r3, #0
 1736 0130 7119     		adds	r1, r6, r5
 1737 0132 C9B2     		uxtb	r1, r1
 1738 0134 2346     		mov	r3, r4
 1739 0136 002C     		cmp	r4, #0
 1740 0138 0FDB     		blt	.L187
 1741              	.L169:
 1742 013a 4BFA05F2 		asr	r2, fp, r5
 1743 013e 12F0010F 		tst	r2, #1
 1744 0142 23F00703 		bic	r3, r3, #7
 1745 0146 1944     		add	r1, r1, r3
 1746 0148 3844     		add	r0, r0, r7
 1747 014a 0CBF     		ite	eq
 1748 014c 0122     		moveq	r2, #1
 1749 014e 0022     		movne	r2, #0
 1750 0150 C9B2     		uxtb	r1, r1
 1751 0152 C0B2     		uxtb	r0, r0
 1752 0154 FFF7FEFF 		bl	NoShowDrawDot
 1753              	.LVL175:
 1754 0158 CFE7     		b	.L168
 1755              	.LVL176:
 1756              	.L187:
 1757 015a E31D     		adds	r3, r4, #7
 1758              	.LVL177:
 1759 015c EDE7     		b	.L169
 1760              	.L186:
 1761              	.LBE31:
 453:Src/MyOLED.c  **** 			{
 1762              		.loc 1 453 0 discriminator 2
 1763 015e 0134     		adds	r4, r4, #1
 1764              	.LVL178:
 1765              	.L162:
 453:Src/MyOLED.c  **** 			{
 1766              		.loc 1 453 0 is_stmt 0 discriminator 1
 1767 0160 0F2C     		cmp	r4, #15
 1768 0162 A7DC     		bgt	.L150
 455:Src/MyOLED.c  **** 				else if (EngTrueBigFalseSmall == 0)WrData = F8X16[(NumToSmallCharStr[Num] - 32) * 16 + ax];
 1769              		.loc 1 455 0 is_stmt 1
 1770 0164 B9F1010F 		cmp	r9, #1
 1771 0168 B0D0     		beq	.L188
 456:Src/MyOLED.c  **** 				for (int ay = 0; ay < 8; ay++)
 1772              		.loc 1 456 0
 1773 016a B9F1000F 		cmp	r9, #0
 1774 016e B6D1     		bne	.L164
 456:Src/MyOLED.c  **** 				for (int ay = 0; ay < 8; ay++)
 1775              		.loc 1 456 0 is_stmt 0 discriminator 1
 1776 0170 214B     		ldr	r3, .L190+8
 1777 0172 13F80A30 		ldrb	r3, [r3, r10]	@ zero_extendqisi2
 1778 0176 203B     		subs	r3, r3, #32
 1779 0178 04EB0313 		add	r3, r4, r3, lsl #4
 1780 017c 1F4A     		ldr	r2, .L190+12
 1781 017e 12F803B0 		ldrb	fp, [r2, r3]	@ zero_extendqisi2
 1782              	.LVL179:
ARM GAS  C:\Users\ADMINI~1\AppData\Local\Temp\cc6xb3Hf.s 			page 42


 1783 0182 ACE7     		b	.L164
 1784              	.LVL180:
 1785              	.L185:
 1786              	.LBE32:
 465:Src/MyOLED.c  **** 		{
 1787              		.loc 1 465 0 is_stmt 1
 1788 0184 3A29     		cmp	r1, #58
 1789 0186 95D8     		bhi	.L150
 465:Src/MyOLED.c  **** 		{
 1790              		.loc 1 465 0 is_stmt 0 discriminator 1
 1791 0188 7E28     		cmp	r0, #126
 1792 018a 93D8     		bhi	.L150
 465:Src/MyOLED.c  **** 		{
 1793              		.loc 1 465 0 discriminator 2
 1794 018c BAF10F0F 		cmp	r10, #15
 1795 0190 90DC     		bgt	.L150
 1796              	.LBB33:
 467:Src/MyOLED.c  **** 			{
 1797              		.loc 1 467 0 is_stmt 1
 1798 0192 0025     		movs	r5, #0
 1799 0194 20E0     		b	.L172
 1800              	.LVL181:
 1801              	.L174:
 1802              	.LBB34:
 473:Src/MyOLED.c  **** 				}
 1803              		.loc 1 473 0
 1804 0196 49FA04F3 		asr	r3, r9, r4
 1805 019a 13F0010F 		tst	r3, #1
 1806 019e 06EB0401 		add	r1, r6, r4
 1807 01a2 07EB0500 		add	r0, r7, r5
 1808 01a6 0CBF     		ite	eq
 1809 01a8 0122     		moveq	r2, #1
 1810 01aa 0022     		movne	r2, #0
 1811 01ac C9B2     		uxtb	r1, r1
 1812 01ae C0B2     		uxtb	r0, r0
 1813 01b0 FFF7FEFF 		bl	NoShowDrawDot
 1814              	.LVL182:
 1815              	.L175:
 470:Src/MyOLED.c  **** 				{
 1816              		.loc 1 470 0 discriminator 2
 1817 01b4 0134     		adds	r4, r4, #1
 1818              	.LVL183:
 1819              	.L173:
 470:Src/MyOLED.c  **** 				{
 1820              		.loc 1 470 0 is_stmt 0 discriminator 1
 1821 01b6 042C     		cmp	r4, #4
 1822 01b8 0DDC     		bgt	.L189
 472:Src/MyOLED.c  **** 					else NoShowDrawDot(x + ax, y + ay, !(WrData & (1 << ay)));
 1823              		.loc 1 472 0 is_stmt 1
 1824 01ba B8F1000F 		cmp	r8, #0
 1825 01be EAD0     		beq	.L174
 472:Src/MyOLED.c  **** 					else NoShowDrawDot(x + ax, y + ay, !(WrData & (1 << ay)));
 1826              		.loc 1 472 0 is_stmt 0 discriminator 1
 1827 01c0 0122     		movs	r2, #1
 1828 01c2 A240     		lsls	r2, r2, r4
 1829 01c4 3119     		adds	r1, r6, r4
 1830 01c6 7819     		adds	r0, r7, r5
ARM GAS  C:\Users\ADMINI~1\AppData\Local\Temp\cc6xb3Hf.s 			page 43


 1831 01c8 02EA0902 		and	r2, r2, r9
 1832 01cc C9B2     		uxtb	r1, r1
 1833 01ce C0B2     		uxtb	r0, r0
 1834 01d0 FFF7FEFF 		bl	NoShowDrawDot
 1835              	.LVL184:
 1836 01d4 EEE7     		b	.L175
 1837              	.L189:
 1838              	.LBE34:
 467:Src/MyOLED.c  **** 			{
 1839              		.loc 1 467 0 is_stmt 1 discriminator 2
 1840 01d6 0135     		adds	r5, r5, #1
 1841              	.LVL185:
 1842              	.L172:
 467:Src/MyOLED.c  **** 			{
 1843              		.loc 1 467 0 is_stmt 0 discriminator 1
 1844 01d8 022D     		cmp	r5, #2
 1845 01da 3FF76BAF 		bgt	.L150
 469:Src/MyOLED.c  **** 				for (int ay = 0; ay < 5; ay++)
 1846              		.loc 1 469 0 is_stmt 1
 1847 01de 0AEB4A02 		add	r2, r10, r10, lsl #1
 1848 01e2 074B     		ldr	r3, .L190+16
 1849 01e4 1344     		add	r3, r3, r2
 1850 01e6 13F80590 		ldrb	r9, [r3, r5]	@ zero_extendqisi2
 1851              	.LVL186:
 1852              	.LBB35:
 470:Src/MyOLED.c  **** 				{
 1853              		.loc 1 470 0
 1854 01ea 0024     		movs	r4, #0
 1855 01ec E3E7     		b	.L173
 1856              	.L191:
 1857 01ee 00BF     		.align	2
 1858              	.L190:
 1859 01f0 00000000 		.word	.LANCHOR8
 1860 01f4 00000000 		.word	.LANCHOR6
 1861 01f8 00000000 		.word	.LANCHOR9
 1862 01fc 00000000 		.word	.LANCHOR7
 1863 0200 00000000 		.word	.LANCHOR10
 1864              	.LBE35:
 1865              	.LBE33:
 1866              		.cfi_endproc
 1867              	.LFE82:
 1869              		.section	.text.NoShowDrawChar,"ax",%progbits
 1870              		.align	1
 1871              		.global	NoShowDrawChar
 1872              		.syntax unified
 1873              		.thumb
 1874              		.thumb_func
 1875              		.fpu softvfp
 1877              	NoShowDrawChar:
 1878              	.LFB83:
 479:Src/MyOLED.c  **** void NoShowDrawChar(unsigned char x, unsigned char y, char Fonts, char charater){
 1879              		.loc 1 479 0
 1880              		.cfi_startproc
 1881              		@ args = 0, pretend = 0, frame = 0
 1882              		@ frame_needed = 0, uses_anonymous_args = 0
 1883              	.LVL187:
 1884 0000 2DE9F843 		push	{r3, r4, r5, r6, r7, r8, r9, lr}
ARM GAS  C:\Users\ADMINI~1\AppData\Local\Temp\cc6xb3Hf.s 			page 44


 1885              	.LCFI22:
 1886              		.cfi_def_cfa_offset 32
 1887              		.cfi_offset 3, -32
 1888              		.cfi_offset 4, -28
 1889              		.cfi_offset 5, -24
 1890              		.cfi_offset 6, -20
 1891              		.cfi_offset 7, -16
 1892              		.cfi_offset 8, -12
 1893              		.cfi_offset 9, -8
 1894              		.cfi_offset 14, -4
 1895 0004 0746     		mov	r7, r0
 1896 0006 0E46     		mov	r6, r1
 480:Src/MyOLED.c  **** 	charater &= 0x7f;
 1897              		.loc 1 480 0
 1898 0008 03F07F09 		and	r9, r3, #127
 1899              	.LVL188:
 481:Src/MyOLED.c  **** 	unsigned char WrData;
 482:Src/MyOLED.c  **** 	if (Fonts == OLED_Char6X8) {
 1900              		.loc 1 482 0
 1901 000c 1ABB     		cbnz	r2, .L193
 483:Src/MyOLED.c  **** 		if (y < 57 && x < 124 && charater > 31)
 1902              		.loc 1 483 0
 1903 000e 3829     		cmp	r1, #56
 1904 0010 23D8     		bhi	.L192
 1905              		.loc 1 483 0 is_stmt 0 discriminator 1
 1906 0012 7B28     		cmp	r0, #123
 1907 0014 21D8     		bhi	.L192
 1908              		.loc 1 483 0 discriminator 2
 1909 0016 B9F11F0F 		cmp	r9, #31
 1910 001a 1ED9     		bls	.L192
 1911              	.LBB36:
 484:Src/MyOLED.c  **** 		{
 485:Src/MyOLED.c  **** 			for (int ax = 0; ax < 6; ax++)
 1912              		.loc 1 485 0 is_stmt 1
 1913 001c 0025     		movs	r5, #0
 1914 001e 0DE0     		b	.L195
 1915              	.LVL189:
 1916              	.L197:
 1917              	.LBB37:
 486:Src/MyOLED.c  **** 			{
 487:Src/MyOLED.c  **** 				WrData = F6x8[charater - 32][ax];
 488:Src/MyOLED.c  **** 				for (int ay = 0; ay < 8; ay++)
 489:Src/MyOLED.c  **** 				{
 490:Src/MyOLED.c  **** 					NoShowDrawDot(x + ax, y + ay, WrData & (1 << ay));
 1918              		.loc 1 490 0 discriminator 3
 1919 0020 0122     		movs	r2, #1
 1920 0022 A240     		lsls	r2, r2, r4
 1921 0024 3119     		adds	r1, r6, r4
 1922 0026 7819     		adds	r0, r7, r5
 1923 0028 02EA0802 		and	r2, r2, r8
 1924 002c C9B2     		uxtb	r1, r1
 1925 002e C0B2     		uxtb	r0, r0
 1926 0030 FFF7FEFF 		bl	NoShowDrawDot
 1927              	.LVL190:
 488:Src/MyOLED.c  **** 				{
 1928              		.loc 1 488 0 discriminator 3
 1929 0034 0134     		adds	r4, r4, #1
ARM GAS  C:\Users\ADMINI~1\AppData\Local\Temp\cc6xb3Hf.s 			page 45


 1930              	.LVL191:
 1931              	.L196:
 488:Src/MyOLED.c  **** 				{
 1932              		.loc 1 488 0 is_stmt 0 discriminator 1
 1933 0036 072C     		cmp	r4, #7
 1934 0038 F2DD     		ble	.L197
 1935              	.LBE37:
 485:Src/MyOLED.c  **** 			{
 1936              		.loc 1 485 0 is_stmt 1 discriminator 2
 1937 003a 0135     		adds	r5, r5, #1
 1938              	.LVL192:
 1939              	.L195:
 485:Src/MyOLED.c  **** 			{
 1940              		.loc 1 485 0 is_stmt 0 discriminator 1
 1941 003c 052D     		cmp	r5, #5
 1942 003e 0CDC     		bgt	.L192
 487:Src/MyOLED.c  **** 				for (int ay = 0; ay < 8; ay++)
 1943              		.loc 1 487 0 is_stmt 1
 1944 0040 A9F12003 		sub	r3, r9, #32
 1945 0044 03EB4303 		add	r3, r3, r3, lsl #1
 1946 0048 5A00     		lsls	r2, r3, #1
 1947 004a 1E4B     		ldr	r3, .L209
 1948 004c 1344     		add	r3, r3, r2
 1949 004e 13F80580 		ldrb	r8, [r3, r5]	@ zero_extendqisi2
 1950              	.LVL193:
 1951              	.LBB38:
 488:Src/MyOLED.c  **** 				{
 1952              		.loc 1 488 0
 1953 0052 0024     		movs	r4, #0
 1954 0054 EFE7     		b	.L196
 1955              	.LVL194:
 1956              	.L193:
 1957              	.LBE38:
 1958              	.LBE36:
 491:Src/MyOLED.c  **** 				}
 492:Src/MyOLED.c  **** 			}
 493:Src/MyOLED.c  **** 		}
 494:Src/MyOLED.c  **** 		} else if (Fonts == OLED_Char8X16) {
 1959              		.loc 1 494 0
 1960 0056 012A     		cmp	r2, #1
 1961 0058 01D0     		beq	.L207
 1962              	.LVL195:
 1963              	.L192:
 495:Src/MyOLED.c  **** 		if (y < 49 && x < 122 && charater > 31)
 496:Src/MyOLED.c  **** 		{
 497:Src/MyOLED.c  **** 			for (int ax = 0; ax < 16; ax++)
 498:Src/MyOLED.c  **** 			{
 499:Src/MyOLED.c  **** 				WrData = F8X16[(charater - 32) * 16 + ax];
 500:Src/MyOLED.c  **** 				for (int ay = 0; ay < 8; ay++)
 501:Src/MyOLED.c  **** 				{
 502:Src/MyOLED.c  **** 					NoShowDrawDot(x + (ax % 8), y + ay + (int)(ax / 8) * 8, WrData & (1 << ay));
 503:Src/MyOLED.c  **** 				}
 504:Src/MyOLED.c  **** 			}
 505:Src/MyOLED.c  **** 		}
 506:Src/MyOLED.c  **** 	}
 507:Src/MyOLED.c  **** }
 1964              		.loc 1 507 0
ARM GAS  C:\Users\ADMINI~1\AppData\Local\Temp\cc6xb3Hf.s 			page 46


 1965 005a BDE8F883 		pop	{r3, r4, r5, r6, r7, r8, r9, pc}
 1966              	.LVL196:
 1967              	.L207:
 495:Src/MyOLED.c  **** 		if (y < 49 && x < 122 && charater > 31)
 1968              		.loc 1 495 0
 1969 005e 3029     		cmp	r1, #48
 1970 0060 FBD8     		bhi	.L192
 495:Src/MyOLED.c  **** 		if (y < 49 && x < 122 && charater > 31)
 1971              		.loc 1 495 0 is_stmt 0 discriminator 1
 1972 0062 7928     		cmp	r0, #121
 1973 0064 F9D8     		bhi	.L192
 495:Src/MyOLED.c  **** 		if (y < 49 && x < 122 && charater > 31)
 1974              		.loc 1 495 0 discriminator 2
 1975 0066 B9F11F0F 		cmp	r9, #31
 1976 006a F6D9     		bls	.L192
 1977              	.LBB39:
 497:Src/MyOLED.c  **** 			{
 1978              		.loc 1 497 0 is_stmt 1
 1979 006c 0024     		movs	r4, #0
 1980 006e 1DE0     		b	.L199
 1981              	.LVL197:
 1982              	.L201:
 1983              	.LBB40:
 502:Src/MyOLED.c  **** 				}
 1984              		.loc 1 502 0 discriminator 3
 1985 0070 0122     		movs	r2, #1
 1986 0072 AA40     		lsls	r2, r2, r5
 1987 0074 23F00703 		bic	r3, r3, #7
 1988 0078 1944     		add	r1, r1, r3
 1989 007a 3844     		add	r0, r0, r7
 1990 007c 02EA0802 		and	r2, r2, r8
 1991 0080 C9B2     		uxtb	r1, r1
 1992 0082 C0B2     		uxtb	r0, r0
 1993 0084 FFF7FEFF 		bl	NoShowDrawDot
 1994              	.LVL198:
 500:Src/MyOLED.c  **** 				{
 1995              		.loc 1 500 0 discriminator 3
 1996 0088 0135     		adds	r5, r5, #1
 1997              	.LVL199:
 1998              	.L200:
 500:Src/MyOLED.c  **** 				{
 1999              		.loc 1 500 0 is_stmt 0 discriminator 1
 2000 008a 072D     		cmp	r5, #7
 2001 008c 0DDC     		bgt	.L208
 502:Src/MyOLED.c  **** 				}
 2002              		.loc 1 502 0 is_stmt 1 discriminator 3
 2003 008e 6342     		rsbs	r3, r4, #0
 2004 0090 04F00700 		and	r0, r4, #7
 2005 0094 03F00703 		and	r3, r3, #7
 2006 0098 58BF     		it	pl
 2007 009a 5842     		rsbpl	r0, r3, #0
 2008 009c 7119     		adds	r1, r6, r5
 2009 009e C9B2     		uxtb	r1, r1
 2010 00a0 2346     		mov	r3, r4
 2011 00a2 002C     		cmp	r4, #0
 2012 00a4 E4DA     		bge	.L201
 2013              	.LVL200:
ARM GAS  C:\Users\ADMINI~1\AppData\Local\Temp\cc6xb3Hf.s 			page 47


 2014 00a6 E31D     		adds	r3, r4, #7
 2015              	.LVL201:
 2016 00a8 E2E7     		b	.L201
 2017              	.L208:
 2018              	.LBE40:
 497:Src/MyOLED.c  **** 			{
 2019              		.loc 1 497 0 discriminator 2
 2020 00aa 0134     		adds	r4, r4, #1
 2021              	.LVL202:
 2022              	.L199:
 497:Src/MyOLED.c  **** 			{
 2023              		.loc 1 497 0 is_stmt 0 discriminator 1
 2024 00ac 0F2C     		cmp	r4, #15
 2025 00ae D4DC     		bgt	.L192
 499:Src/MyOLED.c  **** 				for (int ay = 0; ay < 8; ay++)
 2026              		.loc 1 499 0 is_stmt 1
 2027 00b0 A9F12003 		sub	r3, r9, #32
 2028 00b4 04EB0313 		add	r3, r4, r3, lsl #4
 2029 00b8 034A     		ldr	r2, .L209+4
 2030 00ba 12F80380 		ldrb	r8, [r2, r3]	@ zero_extendqisi2
 2031              	.LVL203:
 2032              	.LBB41:
 500:Src/MyOLED.c  **** 				{
 2033              		.loc 1 500 0
 2034 00be 0025     		movs	r5, #0
 2035 00c0 E3E7     		b	.L200
 2036              	.L210:
 2037 00c2 00BF     		.align	2
 2038              	.L209:
 2039 00c4 00000000 		.word	.LANCHOR6
 2040 00c8 00000000 		.word	.LANCHOR7
 2041              	.LBE41:
 2042              	.LBE39:
 2043              		.cfi_endproc
 2044              	.LFE83:
 2046              		.section	.text.NoShowDrawChar1,"ax",%progbits
 2047              		.align	1
 2048              		.global	NoShowDrawChar1
 2049              		.syntax unified
 2050              		.thumb
 2051              		.thumb_func
 2052              		.fpu softvfp
 2054              	NoShowDrawChar1:
 2055              	.LFB84:
 508:Src/MyOLED.c  **** void NoShowDrawChar1(unsigned char x, unsigned char y, char Fonts, char charater, unsigned char OnO
 2056              		.loc 1 508 0
 2057              		.cfi_startproc
 2058              		@ args = 4, pretend = 0, frame = 0
 2059              		@ frame_needed = 0, uses_anonymous_args = 0
 2060              	.LVL204:
 2061 0000 2DE9F047 		push	{r4, r5, r6, r7, r8, r9, r10, lr}
 2062              	.LCFI23:
 2063              		.cfi_def_cfa_offset 32
 2064              		.cfi_offset 4, -32
 2065              		.cfi_offset 5, -28
 2066              		.cfi_offset 6, -24
 2067              		.cfi_offset 7, -20
ARM GAS  C:\Users\ADMINI~1\AppData\Local\Temp\cc6xb3Hf.s 			page 48


 2068              		.cfi_offset 8, -16
 2069              		.cfi_offset 9, -12
 2070              		.cfi_offset 10, -8
 2071              		.cfi_offset 14, -4
 2072 0004 0746     		mov	r7, r0
 2073 0006 0E46     		mov	r6, r1
 2074 0008 9DF82080 		ldrb	r8, [sp, #32]	@ zero_extendqisi2
 509:Src/MyOLED.c  **** 	charater &= 0x7f;
 2075              		.loc 1 509 0
 2076 000c 03F07F09 		and	r9, r3, #127
 2077              	.LVL205:
 510:Src/MyOLED.c  **** 	unsigned char WrData;
 511:Src/MyOLED.c  **** 	if (Fonts == OLED_Char6X8) {
 2078              		.loc 1 511 0
 2079 0010 B2BB     		cbnz	r2, .L212
 512:Src/MyOLED.c  **** 		if (y < 57 && x < 124 && charater > 31)
 2080              		.loc 1 512 0
 2081 0012 3829     		cmp	r1, #56
 2082 0014 36D8     		bhi	.L211
 2083              		.loc 1 512 0 is_stmt 0 discriminator 1
 2084 0016 7B28     		cmp	r0, #123
 2085 0018 34D8     		bhi	.L211
 2086              		.loc 1 512 0 discriminator 2
 2087 001a B9F11F0F 		cmp	r9, #31
 2088 001e 31D9     		bls	.L211
 2089              	.LBB42:
 513:Src/MyOLED.c  **** 		{
 514:Src/MyOLED.c  **** 			for (int ax = 0; ax < 6; ax++)
 2090              		.loc 1 514 0 is_stmt 1
 2091 0020 0025     		movs	r5, #0
 2092 0022 20E0     		b	.L214
 2093              	.LVL206:
 2094              	.L216:
 2095              	.LBB43:
 515:Src/MyOLED.c  **** 			{
 516:Src/MyOLED.c  **** 				WrData = F6x8[charater - 32][ax];
 517:Src/MyOLED.c  **** 				for (int ay = 0; ay < 8; ay++)
 518:Src/MyOLED.c  **** 				{
 519:Src/MyOLED.c  **** 					if (OnOff)NoShowDrawDot(x + ax, y + ay, WrData & (1 << ay));
 520:Src/MyOLED.c  **** 					else NoShowDrawDot(x + ax, y + ay, !(WrData & (1 << ay)));
 2096              		.loc 1 520 0
 2097 0024 4AFA04F3 		asr	r3, r10, r4
 2098 0028 13F0010F 		tst	r3, #1
 2099 002c 06EB0401 		add	r1, r6, r4
 2100 0030 07EB0500 		add	r0, r7, r5
 2101 0034 0CBF     		ite	eq
 2102 0036 0122     		moveq	r2, #1
 2103 0038 0022     		movne	r2, #0
 2104 003a C9B2     		uxtb	r1, r1
 2105 003c C0B2     		uxtb	r0, r0
 2106 003e FFF7FEFF 		bl	NoShowDrawDot
 2107              	.LVL207:
 2108              	.L217:
 517:Src/MyOLED.c  **** 				{
 2109              		.loc 1 517 0 discriminator 2
 2110 0042 0134     		adds	r4, r4, #1
 2111              	.LVL208:
ARM GAS  C:\Users\ADMINI~1\AppData\Local\Temp\cc6xb3Hf.s 			page 49


 2112              	.L215:
 517:Src/MyOLED.c  **** 				{
 2113              		.loc 1 517 0 is_stmt 0 discriminator 1
 2114 0044 072C     		cmp	r4, #7
 2115 0046 0DDC     		bgt	.L231
 519:Src/MyOLED.c  **** 					else NoShowDrawDot(x + ax, y + ay, !(WrData & (1 << ay)));
 2116              		.loc 1 519 0 is_stmt 1
 2117 0048 B8F1000F 		cmp	r8, #0
 2118 004c EAD0     		beq	.L216
 519:Src/MyOLED.c  **** 					else NoShowDrawDot(x + ax, y + ay, !(WrData & (1 << ay)));
 2119              		.loc 1 519 0 is_stmt 0 discriminator 1
 2120 004e 0122     		movs	r2, #1
 2121 0050 A240     		lsls	r2, r2, r4
 2122 0052 3119     		adds	r1, r6, r4
 2123 0054 7819     		adds	r0, r7, r5
 2124 0056 02EA0A02 		and	r2, r2, r10
 2125 005a C9B2     		uxtb	r1, r1
 2126 005c C0B2     		uxtb	r0, r0
 2127 005e FFF7FEFF 		bl	NoShowDrawDot
 2128              	.LVL209:
 2129 0062 EEE7     		b	.L217
 2130              	.L231:
 2131              	.LBE43:
 514:Src/MyOLED.c  **** 			{
 2132              		.loc 1 514 0 is_stmt 1 discriminator 2
 2133 0064 0135     		adds	r5, r5, #1
 2134              	.LVL210:
 2135              	.L214:
 514:Src/MyOLED.c  **** 			{
 2136              		.loc 1 514 0 is_stmt 0 discriminator 1
 2137 0066 052D     		cmp	r5, #5
 2138 0068 0CDC     		bgt	.L211
 516:Src/MyOLED.c  **** 				for (int ay = 0; ay < 8; ay++)
 2139              		.loc 1 516 0 is_stmt 1
 2140 006a A9F12003 		sub	r3, r9, #32
 2141 006e 03EB4303 		add	r3, r3, r3, lsl #1
 2142 0072 5A00     		lsls	r2, r3, #1
 2143 0074 2E4B     		ldr	r3, .L235
 2144 0076 1344     		add	r3, r3, r2
 2145 0078 13F805A0 		ldrb	r10, [r3, r5]	@ zero_extendqisi2
 2146              	.LVL211:
 2147              	.LBB44:
 517:Src/MyOLED.c  **** 				{
 2148              		.loc 1 517 0
 2149 007c 0024     		movs	r4, #0
 2150 007e E1E7     		b	.L215
 2151              	.LVL212:
 2152              	.L212:
 2153              	.LBE44:
 2154              	.LBE42:
 521:Src/MyOLED.c  **** 				}
 522:Src/MyOLED.c  **** 			}
 523:Src/MyOLED.c  **** 		}
 524:Src/MyOLED.c  **** 		} else if (Fonts == OLED_Char8X16) {
 2155              		.loc 1 524 0
 2156 0080 012A     		cmp	r2, #1
 2157 0082 01D0     		beq	.L232
ARM GAS  C:\Users\ADMINI~1\AppData\Local\Temp\cc6xb3Hf.s 			page 50


 2158              	.LVL213:
 2159              	.L211:
 525:Src/MyOLED.c  **** 		if (y < 49 && x < 122 && charater > 31)
 526:Src/MyOLED.c  **** 		{
 527:Src/MyOLED.c  **** 			for (int ax = 0; ax < 16; ax++)
 528:Src/MyOLED.c  **** 			{
 529:Src/MyOLED.c  **** 				WrData = F8X16[(charater - 32) * 16 + ax];
 530:Src/MyOLED.c  **** 				for (int ay = 0; ay < 8; ay++)
 531:Src/MyOLED.c  **** 				{
 532:Src/MyOLED.c  **** 					if (OnOff)NoShowDrawDot(x + (ax % 8), y + ay + (int)(ax / 8) * 8, WrData & (1 << ay));
 533:Src/MyOLED.c  **** 					else NoShowDrawDot(x + (ax % 8), y + ay + (int)(ax / 8) * 8, !(WrData & (1 << ay)));
 534:Src/MyOLED.c  **** 				}
 535:Src/MyOLED.c  **** 			}
 536:Src/MyOLED.c  **** 		}
 537:Src/MyOLED.c  **** 	}
 538:Src/MyOLED.c  **** }
 2160              		.loc 1 538 0
 2161 0084 BDE8F087 		pop	{r4, r5, r6, r7, r8, r9, r10, pc}
 2162              	.LVL214:
 2163              	.L232:
 525:Src/MyOLED.c  **** 		if (y < 49 && x < 122 && charater > 31)
 2164              		.loc 1 525 0
 2165 0088 3029     		cmp	r1, #48
 2166 008a FBD8     		bhi	.L211
 525:Src/MyOLED.c  **** 		if (y < 49 && x < 122 && charater > 31)
 2167              		.loc 1 525 0 is_stmt 0 discriminator 1
 2168 008c 7928     		cmp	r0, #121
 2169 008e F9D8     		bhi	.L211
 525:Src/MyOLED.c  **** 		if (y < 49 && x < 122 && charater > 31)
 2170              		.loc 1 525 0 discriminator 2
 2171 0090 B9F11F0F 		cmp	r9, #31
 2172 0094 F6D9     		bls	.L211
 2173              	.LBB45:
 527:Src/MyOLED.c  **** 			{
 2174              		.loc 1 527 0 is_stmt 1
 2175 0096 0024     		movs	r4, #0
 2176 0098 3EE0     		b	.L220
 2177              	.LVL215:
 2178              	.L223:
 2179              	.LBB46:
 532:Src/MyOLED.c  **** 					else NoShowDrawDot(x + (ax % 8), y + ay + (int)(ax / 8) * 8, !(WrData & (1 << ay)));
 2180              		.loc 1 532 0 discriminator 1
 2181 009a 0122     		movs	r2, #1
 2182 009c AA40     		lsls	r2, r2, r5
 2183 009e 23F00703 		bic	r3, r3, #7
 2184 00a2 1944     		add	r1, r1, r3
 2185 00a4 3844     		add	r0, r0, r7
 2186 00a6 02EA0A02 		and	r2, r2, r10
 2187 00aa C9B2     		uxtb	r1, r1
 2188 00ac C0B2     		uxtb	r0, r0
 2189 00ae FFF7FEFF 		bl	NoShowDrawDot
 2190              	.LVL216:
 2191              	.L224:
 530:Src/MyOLED.c  **** 				{
 2192              		.loc 1 530 0 discriminator 2
 2193 00b2 0135     		adds	r5, r5, #1
 2194              	.LVL217:
ARM GAS  C:\Users\ADMINI~1\AppData\Local\Temp\cc6xb3Hf.s 			page 51


 2195              	.L221:
 530:Src/MyOLED.c  **** 				{
 2196              		.loc 1 530 0 is_stmt 0 discriminator 1
 2197 00b4 072D     		cmp	r5, #7
 2198 00b6 2EDC     		bgt	.L233
 532:Src/MyOLED.c  **** 					else NoShowDrawDot(x + (ax % 8), y + ay + (int)(ax / 8) * 8, !(WrData & (1 << ay)));
 2199              		.loc 1 532 0 is_stmt 1
 2200 00b8 B8F1000F 		cmp	r8, #0
 2201 00bc 0DD0     		beq	.L222
 532:Src/MyOLED.c  **** 					else NoShowDrawDot(x + (ax % 8), y + ay + (int)(ax / 8) * 8, !(WrData & (1 << ay)));
 2202              		.loc 1 532 0 is_stmt 0 discriminator 1
 2203 00be 6342     		rsbs	r3, r4, #0
 2204 00c0 04F00700 		and	r0, r4, #7
 2205 00c4 03F00703 		and	r3, r3, #7
 2206 00c8 58BF     		it	pl
 2207 00ca 5842     		rsbpl	r0, r3, #0
 2208 00cc 7119     		adds	r1, r6, r5
 2209 00ce C9B2     		uxtb	r1, r1
 2210 00d0 2346     		mov	r3, r4
 2211 00d2 002C     		cmp	r4, #0
 2212 00d4 E1DA     		bge	.L223
 2213              	.LVL218:
 2214 00d6 E31D     		adds	r3, r4, #7
 2215              	.LVL219:
 2216 00d8 DFE7     		b	.L223
 2217              	.L222:
 533:Src/MyOLED.c  **** 				}
 2218              		.loc 1 533 0 is_stmt 1
 2219 00da 6342     		rsbs	r3, r4, #0
 2220 00dc 04F00700 		and	r0, r4, #7
 2221 00e0 03F00703 		and	r3, r3, #7
 2222 00e4 58BF     		it	pl
 2223 00e6 5842     		rsbpl	r0, r3, #0
 2224 00e8 7119     		adds	r1, r6, r5
 2225 00ea C9B2     		uxtb	r1, r1
 2226 00ec 2346     		mov	r3, r4
 2227 00ee 002C     		cmp	r4, #0
 2228 00f0 0FDB     		blt	.L234
 2229              	.L225:
 2230 00f2 4AFA05F2 		asr	r2, r10, r5
 2231 00f6 12F0010F 		tst	r2, #1
 2232 00fa 23F00703 		bic	r3, r3, #7
 2233 00fe 1944     		add	r1, r1, r3
 2234 0100 3844     		add	r0, r0, r7
 2235 0102 0CBF     		ite	eq
 2236 0104 0122     		moveq	r2, #1
 2237 0106 0022     		movne	r2, #0
 2238 0108 C9B2     		uxtb	r1, r1
 2239 010a C0B2     		uxtb	r0, r0
 2240 010c FFF7FEFF 		bl	NoShowDrawDot
 2241              	.LVL220:
 2242 0110 CFE7     		b	.L224
 2243              	.LVL221:
 2244              	.L234:
 2245 0112 E31D     		adds	r3, r4, #7
 2246              	.LVL222:
 2247 0114 EDE7     		b	.L225
ARM GAS  C:\Users\ADMINI~1\AppData\Local\Temp\cc6xb3Hf.s 			page 52


 2248              	.L233:
 2249              	.LBE46:
 527:Src/MyOLED.c  **** 			{
 2250              		.loc 1 527 0 discriminator 2
 2251 0116 0134     		adds	r4, r4, #1
 2252              	.LVL223:
 2253              	.L220:
 527:Src/MyOLED.c  **** 			{
 2254              		.loc 1 527 0 is_stmt 0 discriminator 1
 2255 0118 0F2C     		cmp	r4, #15
 2256 011a B3DC     		bgt	.L211
 529:Src/MyOLED.c  **** 				for (int ay = 0; ay < 8; ay++)
 2257              		.loc 1 529 0 is_stmt 1
 2258 011c A9F12003 		sub	r3, r9, #32
 2259 0120 04EB0313 		add	r3, r4, r3, lsl #4
 2260 0124 034A     		ldr	r2, .L235+4
 2261 0126 12F803A0 		ldrb	r10, [r2, r3]	@ zero_extendqisi2
 2262              	.LVL224:
 2263              	.LBB47:
 530:Src/MyOLED.c  **** 				{
 2264              		.loc 1 530 0
 2265 012a 0025     		movs	r5, #0
 2266 012c C2E7     		b	.L221
 2267              	.L236:
 2268 012e 00BF     		.align	2
 2269              	.L235:
 2270 0130 00000000 		.word	.LANCHOR6
 2271 0134 00000000 		.word	.LANCHOR7
 2272              	.LBE47:
 2273              	.LBE45:
 2274              		.cfi_endproc
 2275              	.LFE84:
 2277              		.section	.text.NoShowDrawString,"ax",%progbits
 2278              		.align	1
 2279              		.global	NoShowDrawString
 2280              		.syntax unified
 2281              		.thumb
 2282              		.thumb_func
 2283              		.fpu softvfp
 2285              	NoShowDrawString:
 2286              	.LFB85:
 539:Src/MyOLED.c  **** void NoShowDrawString(unsigned char x, unsigned char y, char Fonts, char* Strings){
 2287              		.loc 1 539 0
 2288              		.cfi_startproc
 2289              		@ args = 0, pretend = 0, frame = 0
 2290              		@ frame_needed = 0, uses_anonymous_args = 0
 2291              	.LVL225:
 2292 0000 2DE9F041 		push	{r4, r5, r6, r7, r8, lr}
 2293              	.LCFI24:
 2294              		.cfi_def_cfa_offset 24
 2295              		.cfi_offset 4, -24
 2296              		.cfi_offset 5, -20
 2297              		.cfi_offset 6, -16
 2298              		.cfi_offset 7, -12
 2299              		.cfi_offset 8, -8
 2300              		.cfi_offset 14, -4
 2301 0004 0446     		mov	r4, r0
ARM GAS  C:\Users\ADMINI~1\AppData\Local\Temp\cc6xb3Hf.s 			page 53


 2302 0006 8846     		mov	r8, r1
 2303 0008 1646     		mov	r6, r2
 2304 000a 1F46     		mov	r7, r3
 2305              	.LVL226:
 2306              	.LBB48:
 540:Src/MyOLED.c  **** 	for (int a = 0; Strings[a]; a++)
 2307              		.loc 1 540 0
 2308 000c 0025     		movs	r5, #0
 2309 000e 02E0     		b	.L238
 2310              	.LVL227:
 2311              	.L239:
 541:Src/MyOLED.c  **** 	{
 542:Src/MyOLED.c  **** 		NoShowDrawChar(x, y, Fonts, Strings[a]);
 543:Src/MyOLED.c  **** 		if (Fonts == OLED_Char6X8)x += 6;
 544:Src/MyOLED.c  **** 		if (Fonts == OLED_Char8X16)x += 8;
 2312              		.loc 1 544 0
 2313 0010 012E     		cmp	r6, #1
 2314 0012 0CD0     		beq	.L243
 2315              	.L240:
 540:Src/MyOLED.c  **** 	for (int a = 0; Strings[a]; a++)
 2316              		.loc 1 540 0 discriminator 2
 2317 0014 0135     		adds	r5, r5, #1
 2318              	.LVL228:
 2319              	.L238:
 540:Src/MyOLED.c  **** 	for (int a = 0; Strings[a]; a++)
 2320              		.loc 1 540 0 is_stmt 0 discriminator 1
 2321 0016 7B5D     		ldrb	r3, [r7, r5]	@ zero_extendqisi2
 2322 0018 63B1     		cbz	r3, .L244
 542:Src/MyOLED.c  **** 		if (Fonts == OLED_Char6X8)x += 6;
 2323              		.loc 1 542 0 is_stmt 1
 2324 001a 3246     		mov	r2, r6
 2325 001c 4146     		mov	r1, r8
 2326 001e 2046     		mov	r0, r4
 2327 0020 FFF7FEFF 		bl	NoShowDrawChar
 2328              	.LVL229:
 543:Src/MyOLED.c  **** 		if (Fonts == OLED_Char8X16)x += 8;
 2329              		.loc 1 543 0
 2330 0024 002E     		cmp	r6, #0
 2331 0026 F3D1     		bne	.L239
 543:Src/MyOLED.c  **** 		if (Fonts == OLED_Char8X16)x += 8;
 2332              		.loc 1 543 0 is_stmt 0 discriminator 1
 2333 0028 0634     		adds	r4, r4, #6
 2334              	.LVL230:
 2335 002a E4B2     		uxtb	r4, r4
 2336              	.LVL231:
 2337 002c F0E7     		b	.L239
 2338              	.L243:
 2339              		.loc 1 544 0 is_stmt 1 discriminator 1
 2340 002e 0834     		adds	r4, r4, #8
 2341              	.LVL232:
 2342 0030 E4B2     		uxtb	r4, r4
 2343              	.LVL233:
 2344 0032 EFE7     		b	.L240
 2345              	.L244:
 2346              	.LBE48:
 545:Src/MyOLED.c  **** 	}
 546:Src/MyOLED.c  **** }
ARM GAS  C:\Users\ADMINI~1\AppData\Local\Temp\cc6xb3Hf.s 			page 54


 2347              		.loc 1 546 0
 2348 0034 BDE8F081 		pop	{r4, r5, r6, r7, r8, pc}
 2349              		.cfi_endproc
 2350              	.LFE85:
 2352              		.section	.text.NoShowDrawString1,"ax",%progbits
 2353              		.align	1
 2354              		.global	NoShowDrawString1
 2355              		.syntax unified
 2356              		.thumb
 2357              		.thumb_func
 2358              		.fpu softvfp
 2360              	NoShowDrawString1:
 2361              	.LFB86:
 547:Src/MyOLED.c  **** void NoShowDrawString1(unsigned char x, unsigned char y, char Fonts, char* Strings, unsigned char O
 2362              		.loc 1 547 0
 2363              		.cfi_startproc
 2364              		@ args = 4, pretend = 0, frame = 0
 2365              		@ frame_needed = 0, uses_anonymous_args = 0
 2366              	.LVL234:
 2367 0000 2DE9F043 		push	{r4, r5, r6, r7, r8, r9, lr}
 2368              	.LCFI25:
 2369              		.cfi_def_cfa_offset 28
 2370              		.cfi_offset 4, -28
 2371              		.cfi_offset 5, -24
 2372              		.cfi_offset 6, -20
 2373              		.cfi_offset 7, -16
 2374              		.cfi_offset 8, -12
 2375              		.cfi_offset 9, -8
 2376              		.cfi_offset 14, -4
 2377 0004 83B0     		sub	sp, sp, #12
 2378              	.LCFI26:
 2379              		.cfi_def_cfa_offset 40
 2380 0006 0446     		mov	r4, r0
 2381 0008 8946     		mov	r9, r1
 2382 000a 1646     		mov	r6, r2
 2383 000c 1F46     		mov	r7, r3
 2384 000e 9DF82880 		ldrb	r8, [sp, #40]	@ zero_extendqisi2
 2385              	.LVL235:
 2386              	.LBB49:
 548:Src/MyOLED.c  **** 	for (int a = 0; Strings[a]; a++)
 2387              		.loc 1 548 0
 2388 0012 0025     		movs	r5, #0
 2389 0014 02E0     		b	.L246
 2390              	.LVL236:
 2391              	.L247:
 549:Src/MyOLED.c  **** 	{
 550:Src/MyOLED.c  **** 		NoShowDrawChar1(x, y, Fonts, Strings[a], OnOff);
 551:Src/MyOLED.c  **** 		if (Fonts == OLED_Char6X8)x += 6;
 552:Src/MyOLED.c  **** 		if (Fonts == OLED_Char8X16)x += 8;
 2392              		.loc 1 552 0
 2393 0016 012E     		cmp	r6, #1
 2394 0018 0ED0     		beq	.L251
 2395              	.L248:
 548:Src/MyOLED.c  **** 	for (int a = 0; Strings[a]; a++)
 2396              		.loc 1 548 0 discriminator 2
 2397 001a 0135     		adds	r5, r5, #1
 2398              	.LVL237:
ARM GAS  C:\Users\ADMINI~1\AppData\Local\Temp\cc6xb3Hf.s 			page 55


 2399              	.L246:
 548:Src/MyOLED.c  **** 	for (int a = 0; Strings[a]; a++)
 2400              		.loc 1 548 0 is_stmt 0 discriminator 1
 2401 001c 7B5D     		ldrb	r3, [r7, r5]	@ zero_extendqisi2
 2402 001e 73B1     		cbz	r3, .L252
 550:Src/MyOLED.c  **** 		if (Fonts == OLED_Char6X8)x += 6;
 2403              		.loc 1 550 0 is_stmt 1
 2404 0020 CDF80080 		str	r8, [sp]
 2405 0024 3246     		mov	r2, r6
 2406 0026 4946     		mov	r1, r9
 2407 0028 2046     		mov	r0, r4
 2408 002a FFF7FEFF 		bl	NoShowDrawChar1
 2409              	.LVL238:
 551:Src/MyOLED.c  **** 		if (Fonts == OLED_Char8X16)x += 8;
 2410              		.loc 1 551 0
 2411 002e 002E     		cmp	r6, #0
 2412 0030 F1D1     		bne	.L247
 551:Src/MyOLED.c  **** 		if (Fonts == OLED_Char8X16)x += 8;
 2413              		.loc 1 551 0 is_stmt 0 discriminator 1
 2414 0032 0634     		adds	r4, r4, #6
 2415              	.LVL239:
 2416 0034 E4B2     		uxtb	r4, r4
 2417              	.LVL240:
 2418 0036 EEE7     		b	.L247
 2419              	.L251:
 2420              		.loc 1 552 0 is_stmt 1 discriminator 1
 2421 0038 0834     		adds	r4, r4, #8
 2422              	.LVL241:
 2423 003a E4B2     		uxtb	r4, r4
 2424              	.LVL242:
 2425 003c EDE7     		b	.L248
 2426              	.L252:
 2427              	.LBE49:
 553:Src/MyOLED.c  **** 	}
 554:Src/MyOLED.c  **** }
 2428              		.loc 1 554 0
 2429 003e 03B0     		add	sp, sp, #12
 2430              	.LCFI27:
 2431              		.cfi_def_cfa_offset 28
 2432              		@ sp needed
 2433 0040 BDE8F083 		pop	{r4, r5, r6, r7, r8, r9, pc}
 2434              		.cfi_endproc
 2435              	.LFE86:
 2437              		.section	.text.NoShowDrawArea,"ax",%progbits
 2438              		.align	1
 2439              		.global	NoShowDrawArea
 2440              		.syntax unified
 2441              		.thumb
 2442              		.thumb_func
 2443              		.fpu softvfp
 2445              	NoShowDrawArea:
 2446              	.LFB87:
 555:Src/MyOLED.c  **** void NoShowDrawArea(unsigned char x, unsigned char y, unsigned char x1, unsigned char y1, unsigned 
 2447              		.loc 1 555 0
 2448              		.cfi_startproc
 2449              		@ args = 4, pretend = 0, frame = 0
 2450              		@ frame_needed = 0, uses_anonymous_args = 0
ARM GAS  C:\Users\ADMINI~1\AppData\Local\Temp\cc6xb3Hf.s 			page 56


 2451              	.LVL243:
 2452 0000 2DE9F047 		push	{r4, r5, r6, r7, r8, r9, r10, lr}
 2453              	.LCFI28:
 2454              		.cfi_def_cfa_offset 32
 2455              		.cfi_offset 4, -32
 2456              		.cfi_offset 5, -28
 2457              		.cfi_offset 6, -24
 2458              		.cfi_offset 7, -20
 2459              		.cfi_offset 8, -16
 2460              		.cfi_offset 9, -12
 2461              		.cfi_offset 10, -8
 2462              		.cfi_offset 14, -4
 2463 0004 0546     		mov	r5, r0
 2464 0006 0F46     		mov	r7, r1
 2465 0008 9046     		mov	r8, r2
 2466 000a 9A46     		mov	r10, r3
 2467 000c 9DF82090 		ldrb	r9, [sp, #32]	@ zero_extendqisi2
 2468              	.LVL244:
 2469              	.LBB50:
 556:Src/MyOLED.c  **** 	for (int b = 0; b < (y1 - y); b++)
 2470              		.loc 1 556 0
 2471 0010 0026     		movs	r6, #0
 2472 0012 0CE0     		b	.L254
 2473              	.LVL245:
 2474              	.L255:
 2475              	.LBB51:
 557:Src/MyOLED.c  **** 	{
 558:Src/MyOLED.c  **** 		for (int a = 0; a < (x1 - x); a++)
 559:Src/MyOLED.c  **** 		{
 560:Src/MyOLED.c  **** 			NoShowDrawDot(x + a, y + b, OnOff);
 2476              		.loc 1 560 0 discriminator 3
 2477 0014 B919     		adds	r1, r7, r6
 2478 0016 2819     		adds	r0, r5, r4
 2479 0018 4A46     		mov	r2, r9
 2480 001a C9B2     		uxtb	r1, r1
 2481 001c C0B2     		uxtb	r0, r0
 2482 001e FFF7FEFF 		bl	NoShowDrawDot
 2483              	.LVL246:
 558:Src/MyOLED.c  **** 		{
 2484              		.loc 1 558 0 discriminator 3
 2485 0022 0134     		adds	r4, r4, #1
 2486              	.LVL247:
 2487              	.L256:
 558:Src/MyOLED.c  **** 		{
 2488              		.loc 1 558 0 is_stmt 0 discriminator 1
 2489 0024 A8EB0503 		sub	r3, r8, r5
 2490 0028 A342     		cmp	r3, r4
 2491 002a F3DC     		bgt	.L255
 2492              	.LBE51:
 556:Src/MyOLED.c  **** 	for (int b = 0; b < (y1 - y); b++)
 2493              		.loc 1 556 0 is_stmt 1 discriminator 2
 2494 002c 0136     		adds	r6, r6, #1
 2495              	.LVL248:
 2496              	.L254:
 556:Src/MyOLED.c  **** 	for (int b = 0; b < (y1 - y); b++)
 2497              		.loc 1 556 0 is_stmt 0 discriminator 1
 2498 002e AAEB0703 		sub	r3, r10, r7
ARM GAS  C:\Users\ADMINI~1\AppData\Local\Temp\cc6xb3Hf.s 			page 57


 2499 0032 B342     		cmp	r3, r6
 2500 0034 01DD     		ble	.L259
 2501              	.LBB52:
 558:Src/MyOLED.c  **** 		{
 2502              		.loc 1 558 0 is_stmt 1
 2503 0036 0024     		movs	r4, #0
 2504 0038 F4E7     		b	.L256
 2505              	.L259:
 2506              	.LBE52:
 2507              	.LBE50:
 561:Src/MyOLED.c  **** 		}
 562:Src/MyOLED.c  **** 	}
 563:Src/MyOLED.c  **** }
 2508              		.loc 1 563 0
 2509 003a BDE8F087 		pop	{r4, r5, r6, r7, r8, r9, r10, pc}
 2510              		.cfi_endproc
 2511              	.LFE87:
 2513              		.section	.text.NoShowDrawAreaW,"ax",%progbits
 2514              		.align	1
 2515              		.global	NoShowDrawAreaW
 2516              		.syntax unified
 2517              		.thumb
 2518              		.thumb_func
 2519              		.fpu softvfp
 2521              	NoShowDrawAreaW:
 2522              	.LFB88:
 564:Src/MyOLED.c  **** void NoShowDrawAreaW(unsigned char x, unsigned char y, unsigned char w, unsigned char h, unsigned c
 2523              		.loc 1 564 0
 2524              		.cfi_startproc
 2525              		@ args = 4, pretend = 0, frame = 0
 2526              		@ frame_needed = 0, uses_anonymous_args = 0
 2527              	.LVL249:
 2528 0000 2DE9F047 		push	{r4, r5, r6, r7, r8, r9, r10, lr}
 2529              	.LCFI29:
 2530              		.cfi_def_cfa_offset 32
 2531              		.cfi_offset 4, -32
 2532              		.cfi_offset 5, -28
 2533              		.cfi_offset 6, -24
 2534              		.cfi_offset 7, -20
 2535              		.cfi_offset 8, -16
 2536              		.cfi_offset 9, -12
 2537              		.cfi_offset 10, -8
 2538              		.cfi_offset 14, -4
 2539 0004 8146     		mov	r9, r0
 2540 0006 8846     		mov	r8, r1
 2541 0008 9246     		mov	r10, r2
 2542 000a 1E46     		mov	r6, r3
 2543 000c 9DF82070 		ldrb	r7, [sp, #32]	@ zero_extendqisi2
 2544              	.LVL250:
 2545              	.LBB53:
 565:Src/MyOLED.c  **** 	for (int b = 0; b < w; b++)
 2546              		.loc 1 565 0
 2547 0010 0025     		movs	r5, #0
 2548 0012 0CE0     		b	.L261
 2549              	.LVL251:
 2550              	.L262:
 2551              	.LBB54:
ARM GAS  C:\Users\ADMINI~1\AppData\Local\Temp\cc6xb3Hf.s 			page 58


 566:Src/MyOLED.c  **** 	{
 567:Src/MyOLED.c  **** 		for (int a = 0; a < h; a++)
 568:Src/MyOLED.c  **** 		{
 569:Src/MyOLED.c  **** 			NoShowDrawDot(x + a, y + b, OnOff);
 2552              		.loc 1 569 0 discriminator 3
 2553 0014 08EB0501 		add	r1, r8, r5
 2554 0018 09EB0400 		add	r0, r9, r4
 2555 001c 3A46     		mov	r2, r7
 2556 001e C9B2     		uxtb	r1, r1
 2557 0020 C0B2     		uxtb	r0, r0
 2558 0022 FFF7FEFF 		bl	NoShowDrawDot
 2559              	.LVL252:
 567:Src/MyOLED.c  **** 		{
 2560              		.loc 1 567 0 discriminator 3
 2561 0026 0134     		adds	r4, r4, #1
 2562              	.LVL253:
 2563              	.L263:
 567:Src/MyOLED.c  **** 		{
 2564              		.loc 1 567 0 is_stmt 0 discriminator 1
 2565 0028 A642     		cmp	r6, r4
 2566 002a F3DC     		bgt	.L262
 2567              	.LBE54:
 565:Src/MyOLED.c  **** 	for (int b = 0; b < w; b++)
 2568              		.loc 1 565 0 is_stmt 1 discriminator 2
 2569 002c 0135     		adds	r5, r5, #1
 2570              	.LVL254:
 2571              	.L261:
 565:Src/MyOLED.c  **** 	for (int b = 0; b < w; b++)
 2572              		.loc 1 565 0 is_stmt 0 discriminator 1
 2573 002e AA45     		cmp	r10, r5
 2574 0030 01DD     		ble	.L266
 2575              	.LBB55:
 567:Src/MyOLED.c  **** 		{
 2576              		.loc 1 567 0 is_stmt 1
 2577 0032 0024     		movs	r4, #0
 2578 0034 F8E7     		b	.L263
 2579              	.L266:
 2580              	.LBE55:
 2581              	.LBE53:
 570:Src/MyOLED.c  **** 		}
 571:Src/MyOLED.c  **** 	}
 572:Src/MyOLED.c  **** }
 2582              		.loc 1 572 0
 2583 0036 BDE8F087 		pop	{r4, r5, r6, r7, r8, r9, r10, pc}
 2584              		.cfi_endproc
 2585              	.LFE88:
 2587              		.section	.text.NoShowDrawNumStr,"ax",%progbits
 2588              		.align	1
 2589              		.global	NoShowDrawNumStr
 2590              		.syntax unified
 2591              		.thumb
 2592              		.thumb_func
 2593              		.fpu softvfp
 2595              	NoShowDrawNumStr:
 2596              	.LFB89:
 573:Src/MyOLED.c  **** 
 574:Src/MyOLED.c  **** void NoShowDrawNumStr(unsigned char x, unsigned char y, char Fonts, char* Strings, int EngTrueBigFa
ARM GAS  C:\Users\ADMINI~1\AppData\Local\Temp\cc6xb3Hf.s 			page 59


 2597              		.loc 1 574 0
 2598              		.cfi_startproc
 2599              		@ args = 4, pretend = 0, frame = 0
 2600              		@ frame_needed = 0, uses_anonymous_args = 0
 2601              	.LVL255:
 2602 0000 2DE9F04F 		push	{r4, r5, r6, r7, r8, r9, r10, fp, lr}
 2603              	.LCFI30:
 2604              		.cfi_def_cfa_offset 36
 2605              		.cfi_offset 4, -36
 2606              		.cfi_offset 5, -32
 2607              		.cfi_offset 6, -28
 2608              		.cfi_offset 7, -24
 2609              		.cfi_offset 8, -20
 2610              		.cfi_offset 9, -16
 2611              		.cfi_offset 10, -12
 2612              		.cfi_offset 11, -8
 2613              		.cfi_offset 14, -4
 2614 0004 83B0     		sub	sp, sp, #12
 2615              	.LCFI31:
 2616              		.cfi_def_cfa_offset 48
 2617 0006 8146     		mov	r9, r0
 2618 0008 8A46     		mov	r10, r1
 2619 000a 1646     		mov	r6, r2
 2620 000c 1F46     		mov	r7, r3
 2621 000e DDF830B0 		ldr	fp, [sp, #48]
 2622              	.LVL256:
 575:Src/MyOLED.c  **** 	int b = 0;
 576:Src/MyOLED.c  **** 	if (Fonts == OLED_Num3X5){NoShowDrawAreaW(x-1,y-1,7,strlen(Strings)*4+1,0);b = 4;}
 2623              		.loc 1 576 0
 2624 0012 022A     		cmp	r2, #2
 2625 0014 08D0     		beq	.L277
 575:Src/MyOLED.c  **** 	int b = 0;
 2626              		.loc 1 575 0
 2627 0016 4FF00008 		mov	r8, #0
 2628              	.LVL257:
 2629              	.L268:
 577:Src/MyOLED.c  **** 	if (Fonts == OLED_Char6X8)b = 6;
 2630              		.loc 1 577 0
 2631 001a 0EB9     		cbnz	r6, .L269
 2632 001c 4FF00608 		mov	r8, #6
 2633              	.LVL258:
 2634              	.L269:
 578:Src/MyOLED.c  **** 	if (Fonts == OLED_Char8X16)b = 8;
 2635              		.loc 1 578 0
 2636 0020 012E     		cmp	r6, #1
 2637 0022 15D0     		beq	.L278
 2638              	.LVL259:
 2639              	.L270:
 2640              	.LBB56:
 579:Src/MyOLED.c  **** 	for (int a = 0; Strings[a]; a++)
 2641              		.loc 1 579 0
 2642 0024 0024     		movs	r4, #0
 2643 0026 24E0     		b	.L271
 2644              	.LVL260:
 2645              	.L277:
 2646              	.LBE56:
 576:Src/MyOLED.c  **** 	if (Fonts == OLED_Char6X8)b = 6;
ARM GAS  C:\Users\ADMINI~1\AppData\Local\Temp\cc6xb3Hf.s 			page 60


 2647              		.loc 1 576 0 discriminator 1
 2648 0028 1846     		mov	r0, r3
 2649              	.LVL261:
 2650 002a FFF7FEFF 		bl	strlen
 2651              	.LVL262:
 2652 002e 8300     		lsls	r3, r0, #2
 2653 0030 0133     		adds	r3, r3, #1
 2654 0032 0AF1FF31 		add	r1, r10, #-1
 2655 0036 09F1FF30 		add	r0, r9, #-1
 2656 003a 0022     		movs	r2, #0
 2657 003c 0092     		str	r2, [sp]
 2658 003e DBB2     		uxtb	r3, r3
 2659 0040 0722     		movs	r2, #7
 2660 0042 C9B2     		uxtb	r1, r1
 2661 0044 C0B2     		uxtb	r0, r0
 2662 0046 FFF7FEFF 		bl	NoShowDrawAreaW
 2663              	.LVL263:
 2664 004a 4FF00408 		mov	r8, #4
 2665 004e E4E7     		b	.L268
 2666              	.LVL264:
 2667              	.L278:
 578:Src/MyOLED.c  **** 	if (Fonts == OLED_Char8X16)b = 8;
 2668              		.loc 1 578 0
 2669 0050 4FF00808 		mov	r8, #8
 2670              	.LVL265:
 2671 0054 E6E7     		b	.L270
 2672              	.LVL266:
 2673              	.L272:
 2674              	.LBB57:
 580:Src/MyOLED.c  **** 	{
 581:Src/MyOLED.c  **** 		NoShowDrawNum(x + b * a, y, Fonts, CharToNum(Strings[a]),EngTrueBigFalseSmall);
 2675              		.loc 1 581 0 discriminator 3
 2676 0056 08FB0495 		mla	r5, r8, r4, r9
 2677 005a EDB2     		uxtb	r5, r5
 2678 005c FFF7FEFF 		bl	CharToNum
 2679              	.LVL267:
 2680 0060 CDF800B0 		str	fp, [sp]
 2681 0064 0346     		mov	r3, r0
 2682 0066 3246     		mov	r2, r6
 2683 0068 5146     		mov	r1, r10
 2684 006a 2846     		mov	r0, r5
 2685 006c FFF7FEFF 		bl	NoShowDrawNum
 2686              	.LVL268:
 579:Src/MyOLED.c  **** 	{
 2687              		.loc 1 579 0 discriminator 3
 2688 0070 0134     		adds	r4, r4, #1
 2689              	.LVL269:
 2690              	.L271:
 579:Src/MyOLED.c  **** 	{
 2691              		.loc 1 579 0 is_stmt 0 discriminator 1
 2692 0072 385D     		ldrb	r0, [r7, r4]	@ zero_extendqisi2
 2693 0074 0028     		cmp	r0, #0
 2694 0076 EED1     		bne	.L272
 2695              	.LBE57:
 582:Src/MyOLED.c  **** 	}
 583:Src/MyOLED.c  **** }
 2696              		.loc 1 583 0 is_stmt 1
ARM GAS  C:\Users\ADMINI~1\AppData\Local\Temp\cc6xb3Hf.s 			page 61


 2697 0078 03B0     		add	sp, sp, #12
 2698              	.LCFI32:
 2699              		.cfi_def_cfa_offset 36
 2700              		@ sp needed
 2701 007a BDE8F08F 		pop	{r4, r5, r6, r7, r8, r9, r10, fp, pc}
 2702              		.cfi_endproc
 2703              	.LFE89:
 2705              		.section	.text.NoShowDrawNumStr1,"ax",%progbits
 2706              		.align	1
 2707              		.global	NoShowDrawNumStr1
 2708              		.syntax unified
 2709              		.thumb
 2710              		.thumb_func
 2711              		.fpu softvfp
 2713              	NoShowDrawNumStr1:
 2714              	.LFB90:
 584:Src/MyOLED.c  **** void NoShowDrawNumStr1(unsigned char x, unsigned char y, char Fonts, char* Strings, unsigned char O
 2715              		.loc 1 584 0
 2716              		.cfi_startproc
 2717              		@ args = 8, pretend = 0, frame = 8
 2718              		@ frame_needed = 0, uses_anonymous_args = 0
 2719              	.LVL270:
 2720 0000 2DE9F04F 		push	{r4, r5, r6, r7, r8, r9, r10, fp, lr}
 2721              	.LCFI33:
 2722              		.cfi_def_cfa_offset 36
 2723              		.cfi_offset 4, -36
 2724              		.cfi_offset 5, -32
 2725              		.cfi_offset 6, -28
 2726              		.cfi_offset 7, -24
 2727              		.cfi_offset 8, -20
 2728              		.cfi_offset 9, -16
 2729              		.cfi_offset 10, -12
 2730              		.cfi_offset 11, -8
 2731              		.cfi_offset 14, -4
 2732 0004 85B0     		sub	sp, sp, #20
 2733              	.LCFI34:
 2734              		.cfi_def_cfa_offset 56
 2735 0006 8146     		mov	r9, r0
 2736 0008 0391     		str	r1, [sp, #12]
 2737 000a 1646     		mov	r6, r2
 2738 000c 1F46     		mov	r7, r3
 2739 000e 9DF838A0 		ldrb	r10, [sp, #56]	@ zero_extendqisi2
 2740 0012 DDF83CB0 		ldr	fp, [sp, #60]
 2741              	.LVL271:
 585:Src/MyOLED.c  **** 	int b = 0;
 586:Src/MyOLED.c  **** 	if (Fonts == OLED_Num3X5){NoShowDrawAreaW(x-1,y-1,7,strlen(Strings)*4+1,!OnOff);b = 4;}
 2742              		.loc 1 586 0
 2743 0016 022A     		cmp	r2, #2
 2744 0018 08D0     		beq	.L289
 585:Src/MyOLED.c  **** 	int b = 0;
 2745              		.loc 1 585 0
 2746 001a 4FF00008 		mov	r8, #0
 2747              	.LVL272:
 2748              	.L280:
 587:Src/MyOLED.c  **** 	if (Fonts == OLED_Char6X8)b = 6;
 2749              		.loc 1 587 0
 2750 001e 0EB9     		cbnz	r6, .L281
ARM GAS  C:\Users\ADMINI~1\AppData\Local\Temp\cc6xb3Hf.s 			page 62


 2751 0020 4FF00608 		mov	r8, #6
 2752              	.LVL273:
 2753              	.L281:
 588:Src/MyOLED.c  **** 	if (Fonts == OLED_Char8X16)b = 8;
 2754              		.loc 1 588 0
 2755 0024 012E     		cmp	r6, #1
 2756 0026 17D0     		beq	.L290
 2757              	.LVL274:
 2758              	.L282:
 2759              	.LBB58:
 589:Src/MyOLED.c  **** 	for (int a = 0; Strings[a]; a++)
 2760              		.loc 1 589 0
 2761 0028 0024     		movs	r4, #0
 2762 002a 28E0     		b	.L283
 2763              	.LVL275:
 2764              	.L289:
 2765              	.LBE58:
 586:Src/MyOLED.c  **** 	if (Fonts == OLED_Char6X8)b = 6;
 2766              		.loc 1 586 0 discriminator 1
 2767 002c 1846     		mov	r0, r3
 2768              	.LVL276:
 2769 002e FFF7FEFF 		bl	strlen
 2770              	.LVL277:
 2771 0032 8300     		lsls	r3, r0, #2
 2772 0034 0133     		adds	r3, r3, #1
 2773 0036 039A     		ldr	r2, [sp, #12]
 2774 0038 511E     		subs	r1, r2, #1
 2775 003a 09F1FF30 		add	r0, r9, #-1
 2776 003e BAFA8AF2 		clz	r2, r10
 2777 0042 5209     		lsrs	r2, r2, #5
 2778 0044 0092     		str	r2, [sp]
 2779 0046 DBB2     		uxtb	r3, r3
 2780 0048 0722     		movs	r2, #7
 2781 004a C9B2     		uxtb	r1, r1
 2782 004c C0B2     		uxtb	r0, r0
 2783 004e FFF7FEFF 		bl	NoShowDrawAreaW
 2784              	.LVL278:
 2785 0052 4FF00408 		mov	r8, #4
 2786 0056 E2E7     		b	.L280
 2787              	.LVL279:
 2788              	.L290:
 588:Src/MyOLED.c  **** 	if (Fonts == OLED_Char8X16)b = 8;
 2789              		.loc 1 588 0
 2790 0058 4FF00808 		mov	r8, #8
 2791              	.LVL280:
 2792 005c E4E7     		b	.L282
 2793              	.LVL281:
 2794              	.L284:
 2795              	.LBB59:
 590:Src/MyOLED.c  **** 	{
 591:Src/MyOLED.c  **** 		NoShowDrawNum1(x + b * a, y, Fonts, CharToNum(Strings[a]),OnOff,EngTrueBigFalseSmall);
 2796              		.loc 1 591 0 discriminator 3
 2797 005e 08FB0495 		mla	r5, r8, r4, r9
 2798 0062 EDB2     		uxtb	r5, r5
 2799 0064 FFF7FEFF 		bl	CharToNum
 2800              	.LVL282:
 2801 0068 CDF804B0 		str	fp, [sp, #4]
ARM GAS  C:\Users\ADMINI~1\AppData\Local\Temp\cc6xb3Hf.s 			page 63


 2802 006c CDF800A0 		str	r10, [sp]
 2803 0070 0346     		mov	r3, r0
 2804 0072 3246     		mov	r2, r6
 2805 0074 0399     		ldr	r1, [sp, #12]
 2806 0076 2846     		mov	r0, r5
 2807 0078 FFF7FEFF 		bl	NoShowDrawNum1
 2808              	.LVL283:
 589:Src/MyOLED.c  **** 	{
 2809              		.loc 1 589 0 discriminator 3
 2810 007c 0134     		adds	r4, r4, #1
 2811              	.LVL284:
 2812              	.L283:
 589:Src/MyOLED.c  **** 	{
 2813              		.loc 1 589 0 is_stmt 0 discriminator 1
 2814 007e 385D     		ldrb	r0, [r7, r4]	@ zero_extendqisi2
 2815 0080 0028     		cmp	r0, #0
 2816 0082 ECD1     		bne	.L284
 2817              	.LBE59:
 592:Src/MyOLED.c  **** 	}
 593:Src/MyOLED.c  **** }
 2818              		.loc 1 593 0 is_stmt 1
 2819 0084 05B0     		add	sp, sp, #20
 2820              	.LCFI35:
 2821              		.cfi_def_cfa_offset 36
 2822              		@ sp needed
 2823 0086 BDE8F08F 		pop	{r4, r5, r6, r7, r8, r9, r10, fp, pc}
 2824              		.cfi_endproc
 2825              	.LFE90:
 2827              		.global	__aeabi_i2d
 2828              		.global	__aeabi_d2iz
 2829              		.section	.text.NoShowDrawCircle,"ax",%progbits
 2830              		.align	1
 2831              		.global	NoShowDrawCircle
 2832              		.syntax unified
 2833              		.thumb
 2834              		.thumb_func
 2835              		.fpu softvfp
 2837              	NoShowDrawCircle:
 2838              	.LFB91:
 594:Src/MyOLED.c  **** void NoShowDrawCircle(unsigned char x, unsigned char y, unsigned char r, unsigned char OnOff, unsig
 2839              		.loc 1 594 0
 2840              		.cfi_startproc
 2841              		@ args = 4, pretend = 0, frame = 0
 2842              		@ frame_needed = 0, uses_anonymous_args = 0
 2843              	.LVL285:
 2844 0000 2DE9F04F 		push	{r4, r5, r6, r7, r8, r9, r10, fp, lr}
 2845              	.LCFI36:
 2846              		.cfi_def_cfa_offset 36
 2847              		.cfi_offset 4, -36
 2848              		.cfi_offset 5, -32
 2849              		.cfi_offset 6, -28
 2850              		.cfi_offset 7, -24
 2851              		.cfi_offset 8, -20
 2852              		.cfi_offset 9, -16
 2853              		.cfi_offset 10, -12
 2854              		.cfi_offset 11, -8
 2855              		.cfi_offset 14, -4
ARM GAS  C:\Users\ADMINI~1\AppData\Local\Temp\cc6xb3Hf.s 			page 64


 2856 0004 83B0     		sub	sp, sp, #12
 2857              	.LCFI37:
 2858              		.cfi_def_cfa_offset 48
 2859 0006 8046     		mov	r8, r0
 2860 0008 0E46     		mov	r6, r1
 2861 000a 1F46     		mov	r7, r3
 2862 000c 9DF83030 		ldrb	r3, [sp, #48]	@ zero_extendqisi2
 2863              	.LVL286:
 595:Src/MyOLED.c  **** 	int b = 0;
 596:Src/MyOLED.c  **** 	if (Full) {
 2864              		.loc 1 596 0
 2865 0010 FBB1     		cbz	r3, .L292
 2866              	.LBB60:
 597:Src/MyOLED.c  **** 		for (int a = -r; a < r; a++)
 2867              		.loc 1 597 0
 2868 0012 9146     		mov	r9, r2
 2869 0014 5442     		negs	r4, r2
 2870              	.LVL287:
 2871 0016 17E0     		b	.L293
 2872              	.LVL288:
 2873              	.L294:
 598:Src/MyOLED.c  **** 		{
 599:Src/MyOLED.c  **** 			b = sqrt((r * r) - (a * a));
 2874              		.loc 1 599 0 discriminator 3
 2875 0018 09FB09F0 		mul	r0, r9, r9
 2876 001c 04FB1400 		mls	r0, r4, r4, r0
 2877 0020 FFF7FEFF 		bl	__aeabi_i2d
 2878              	.LVL289:
 2879 0024 FFF7FEFF 		bl	sqrt
 2880              	.LVL290:
 2881 0028 FFF7FEFF 		bl	__aeabi_d2iz
 2882              	.LVL291:
 600:Src/MyOLED.c  **** 			NoShowDrawLine( x + a, y - b,  x + a, y + b, OnOff);
 2883              		.loc 1 600 0 discriminator 3
 2884 002c 08EB0405 		add	r5, r8, r4
 2885 0030 EDB2     		uxtb	r5, r5
 2886 0032 C0B2     		uxtb	r0, r0
 2887              	.LVL292:
 2888 0034 8319     		adds	r3, r0, r6
 2889 0036 311A     		subs	r1, r6, r0
 2890 0038 0097     		str	r7, [sp]
 2891 003a DBB2     		uxtb	r3, r3
 2892 003c 2A46     		mov	r2, r5
 2893 003e C9B2     		uxtb	r1, r1
 2894 0040 2846     		mov	r0, r5
 2895 0042 FFF7FEFF 		bl	NoShowDrawLine
 2896              	.LVL293:
 597:Src/MyOLED.c  **** 		for (int a = -r; a < r; a++)
 2897              		.loc 1 597 0 discriminator 3
 2898 0046 0134     		adds	r4, r4, #1
 2899              	.LVL294:
 2900              	.L293:
 597:Src/MyOLED.c  **** 		for (int a = -r; a < r; a++)
 2901              		.loc 1 597 0 is_stmt 0 discriminator 1
 2902 0048 A145     		cmp	r9, r4
 2903 004a E5DC     		bgt	.L294
 2904              	.LVL295:
ARM GAS  C:\Users\ADMINI~1\AppData\Local\Temp\cc6xb3Hf.s 			page 65


 2905              	.L291:
 2906              	.LBE60:
 601:Src/MyOLED.c  **** 		}
 602:Src/MyOLED.c  **** 	} else
 603:Src/MyOLED.c  **** 	{
 604:Src/MyOLED.c  **** 		int c = 0;
 605:Src/MyOLED.c  **** 		for (int a = -r; a < r; a++)
 606:Src/MyOLED.c  **** 		{
 607:Src/MyOLED.c  **** 			b = sqrt((r * r) - (a * a));
 608:Src/MyOLED.c  **** 			c = sqrt((r * r) - ((a - 1) * (a - 1)));
 609:Src/MyOLED.c  **** 			NoShowDrawLine( x + a, y + c, x + a, y + b, OnOff);
 610:Src/MyOLED.c  **** 			NoShowDrawLine( x + a, y - c, x + a, y - b, OnOff);
 611:Src/MyOLED.c  **** 		}
 612:Src/MyOLED.c  **** 	}
 613:Src/MyOLED.c  **** }
 2907              		.loc 1 613 0 is_stmt 1
 2908 004c 03B0     		add	sp, sp, #12
 2909              	.LCFI38:
 2910              		.cfi_remember_state
 2911              		.cfi_def_cfa_offset 36
 2912              		@ sp needed
 2913 004e BDE8F08F 		pop	{r4, r5, r6, r7, r8, r9, r10, fp, pc}
 2914              	.LVL296:
 2915              	.L292:
 2916              	.LCFI39:
 2917              		.cfi_restore_state
 2918              	.LBB61:
 2919              	.LBB62:
 605:Src/MyOLED.c  **** 		{
 2920              		.loc 1 605 0
 2921 0052 9146     		mov	r9, r2
 2922 0054 5442     		negs	r4, r2
 2923              	.LVL297:
 2924 0056 31E0     		b	.L296
 2925              	.LVL298:
 2926              	.L297:
 607:Src/MyOLED.c  **** 			c = sqrt((r * r) - ((a - 1) * (a - 1)));
 2927              		.loc 1 607 0 discriminator 3
 2928 0058 09FB09F5 		mul	r5, r9, r9
 2929 005c 04FB1450 		mls	r0, r4, r4, r5
 2930 0060 FFF7FEFF 		bl	__aeabi_i2d
 2931              	.LVL299:
 2932 0064 FFF7FEFF 		bl	sqrt
 2933              	.LVL300:
 2934 0068 FFF7FEFF 		bl	__aeabi_d2iz
 2935              	.LVL301:
 2936 006c 8246     		mov	r10, r0
 2937              	.LVL302:
 608:Src/MyOLED.c  **** 			NoShowDrawLine( x + a, y + c, x + a, y + b, OnOff);
 2938              		.loc 1 608 0 discriminator 3
 2939 006e 601E     		subs	r0, r4, #1
 2940              	.LVL303:
 2941 0070 00FB1050 		mls	r0, r0, r0, r5
 2942 0074 FFF7FEFF 		bl	__aeabi_i2d
 2943              	.LVL304:
 2944 0078 FFF7FEFF 		bl	sqrt
 2945              	.LVL305:
ARM GAS  C:\Users\ADMINI~1\AppData\Local\Temp\cc6xb3Hf.s 			page 66


 2946 007c FFF7FEFF 		bl	__aeabi_d2iz
 2947              	.LVL306:
 609:Src/MyOLED.c  **** 			NoShowDrawLine( x + a, y - c, x + a, y - b, OnOff);
 2948              		.loc 1 609 0 discriminator 3
 2949 0080 08EB0405 		add	r5, r8, r4
 2950 0084 EDB2     		uxtb	r5, r5
 2951 0086 5FFA80FB 		uxtb	fp, r0
 2952 008a 5FFA8AFA 		uxtb	r10, r10
 2953              	.LVL307:
 2954 008e 0AEB0603 		add	r3, r10, r6
 2955 0092 0BEB0601 		add	r1, fp, r6
 2956 0096 0097     		str	r7, [sp]
 2957 0098 DBB2     		uxtb	r3, r3
 2958 009a 2A46     		mov	r2, r5
 2959 009c C9B2     		uxtb	r1, r1
 2960 009e 2846     		mov	r0, r5
 2961              	.LVL308:
 2962 00a0 FFF7FEFF 		bl	NoShowDrawLine
 2963              	.LVL309:
 610:Src/MyOLED.c  **** 		}
 2964              		.loc 1 610 0 discriminator 3
 2965 00a4 A6EB0A03 		sub	r3, r6, r10
 2966 00a8 A6EB0B01 		sub	r1, r6, fp
 2967 00ac 0097     		str	r7, [sp]
 2968 00ae DBB2     		uxtb	r3, r3
 2969 00b0 2A46     		mov	r2, r5
 2970 00b2 C9B2     		uxtb	r1, r1
 2971 00b4 2846     		mov	r0, r5
 2972 00b6 FFF7FEFF 		bl	NoShowDrawLine
 2973              	.LVL310:
 605:Src/MyOLED.c  **** 		{
 2974              		.loc 1 605 0 discriminator 3
 2975 00ba 0134     		adds	r4, r4, #1
 2976              	.LVL311:
 2977              	.L296:
 605:Src/MyOLED.c  **** 		{
 2978              		.loc 1 605 0 is_stmt 0 discriminator 1
 2979 00bc A145     		cmp	r9, r4
 2980 00be CBDC     		bgt	.L297
 2981 00c0 C4E7     		b	.L291
 2982              	.LBE62:
 2983              	.LBE61:
 2984              		.cfi_endproc
 2985              	.LFE91:
 2987              		.section	.text.NoShowDrawPicture,"ax",%progbits
 2988              		.align	1
 2989              		.global	NoShowDrawPicture
 2990              		.syntax unified
 2991              		.thumb
 2992              		.thumb_func
 2993              		.fpu softvfp
 2995              	NoShowDrawPicture:
 2996              	.LFB92:
 614:Src/MyOLED.c  **** void NoShowDrawPicture(unsigned char x, unsigned char y, unsigned char w, unsigned char h, unsigned
 2997              		.loc 1 614 0 is_stmt 1
 2998              		.cfi_startproc
 2999              		@ args = 8, pretend = 0, frame = 0
ARM GAS  C:\Users\ADMINI~1\AppData\Local\Temp\cc6xb3Hf.s 			page 67


 3000              		@ frame_needed = 0, uses_anonymous_args = 0
 3001              	.LVL312:
 3002 0000 2DE9F047 		push	{r4, r5, r6, r7, r8, r9, r10, lr}
 3003              	.LCFI40:
 3004              		.cfi_def_cfa_offset 32
 3005              		.cfi_offset 4, -32
 3006              		.cfi_offset 5, -28
 3007              		.cfi_offset 6, -24
 3008              		.cfi_offset 7, -20
 3009              		.cfi_offset 8, -16
 3010              		.cfi_offset 9, -12
 3011              		.cfi_offset 10, -8
 3012              		.cfi_offset 14, -4
 3013 0004 0646     		mov	r6, r0
 3014 0006 0F46     		mov	r7, r1
 3015 0008 1546     		mov	r5, r2
 3016 000a 9946     		mov	r9, r3
 3017 000c DDF82080 		ldr	r8, [sp, #32]
 3018 0010 9DF82430 		ldrb	r3, [sp, #36]	@ zero_extendqisi2
 3019              	.LVL313:
 615:Src/MyOLED.c  **** 	if(OnOff){
 3020              		.loc 1 615 0
 3021 0014 83BB     		cbnz	r3, .L311
 3022              	.LBB63:
 616:Src/MyOLED.c  **** 		for (int b = 0; b < h; b++) {
 617:Src/MyOLED.c  **** 			for (int a = 0; a < w; a++) {
 618:Src/MyOLED.c  **** 				NoShowDrawDot(x + a	, y + b, Picture[b*(((w-1)/8)+1) + a/8] & (1 << (7 - a%8)));
 619:Src/MyOLED.c  **** 			}
 620:Src/MyOLED.c  **** 		}
 621:Src/MyOLED.c  **** 	}
 622:Src/MyOLED.c  **** 	else {
 623:Src/MyOLED.c  **** 		for (int b = 0; b < h; b++) {
 3023              		.loc 1 623 0
 3024 0016 4FF0000A 		mov	r10, #0
 3025 001a 5DE0     		b	.L301
 3026              	.LVL314:
 3027              	.L316:
 3028              	.LBE63:
 3029              	.LBB66:
 3030              	.LBB67:
 618:Src/MyOLED.c  **** 			}
 3031              		.loc 1 618 0 discriminator 3
 3032 001c 0733     		adds	r3, r3, #7
 3033 001e 1DE0     		b	.L302
 3034              	.L303:
 3035 0020 03EBE203 		add	r3, r3, r2, asr #3
 3036 0024 18F90320 		ldrsb	r2, [r8, r3]
 3037 0028 6142     		rsbs	r1, r4, #0
 3038 002a 04F00703 		and	r3, r4, #7
 3039 002e 01F00701 		and	r1, r1, #7
 3040 0032 58BF     		it	pl
 3041 0034 4B42     		rsbpl	r3, r1, #0
 3042 0036 C3F10703 		rsb	r3, r3, #7
 3043 003a 0121     		movs	r1, #1
 3044 003c 01FA03F3 		lsl	r3, r1, r3
 3045 0040 1A40     		ands	r2, r2, r3
 3046 0042 07EB0A01 		add	r1, r7, r10
ARM GAS  C:\Users\ADMINI~1\AppData\Local\Temp\cc6xb3Hf.s 			page 68


 3047 0046 3019     		adds	r0, r6, r4
 3048 0048 D2B2     		uxtb	r2, r2
 3049 004a C9B2     		uxtb	r1, r1
 3050 004c C0B2     		uxtb	r0, r0
 3051 004e FFF7FEFF 		bl	NoShowDrawDot
 3052              	.LVL315:
 617:Src/MyOLED.c  **** 				NoShowDrawDot(x + a	, y + b, Picture[b*(((w-1)/8)+1) + a/8] & (1 << (7 - a%8)));
 3053              		.loc 1 617 0 discriminator 3
 3054 0052 0134     		adds	r4, r4, #1
 3055              	.LVL316:
 3056              	.L305:
 617:Src/MyOLED.c  **** 				NoShowDrawDot(x + a	, y + b, Picture[b*(((w-1)/8)+1) + a/8] & (1 << (7 - a%8)));
 3057              		.loc 1 617 0 is_stmt 0 discriminator 1
 3058 0054 A542     		cmp	r5, r4
 3059 0056 09DD     		ble	.L315
 618:Src/MyOLED.c  **** 			}
 3060              		.loc 1 618 0 is_stmt 1 discriminator 3
 3061 0058 6B1E     		subs	r3, r5, #1
 3062 005a DFD4     		bmi	.L316
 3063              	.L302:
 3064 005c DB10     		asrs	r3, r3, #3
 3065 005e 03FB0AA3 		mla	r3, r3, r10, r10
 3066 0062 2246     		mov	r2, r4
 3067 0064 002C     		cmp	r4, #0
 3068 0066 DBDA     		bge	.L303
 3069              	.LVL317:
 3070 0068 E21D     		adds	r2, r4, #7
 3071              	.LVL318:
 3072 006a D9E7     		b	.L303
 3073              	.L315:
 3074              	.LBE67:
 616:Src/MyOLED.c  **** 		for (int b = 0; b < h; b++) {
 3075              		.loc 1 616 0 discriminator 2
 3076 006c 0AF1010A 		add	r10, r10, #1
 3077              	.LVL319:
 3078              	.L300:
 616:Src/MyOLED.c  **** 		for (int b = 0; b < h; b++) {
 3079              		.loc 1 616 0 is_stmt 0 discriminator 1
 3080 0070 D145     		cmp	r9, r10
 3081 0072 35DD     		ble	.L299
 3082              	.LBB68:
 617:Src/MyOLED.c  **** 				NoShowDrawDot(x + a	, y + b, Picture[b*(((w-1)/8)+1) + a/8] & (1 << (7 - a%8)));
 3083              		.loc 1 617 0 is_stmt 1
 3084 0074 0024     		movs	r4, #0
 3085 0076 EDE7     		b	.L305
 3086              	.LVL320:
 3087              	.L311:
 3088              	.LBE68:
 616:Src/MyOLED.c  **** 		for (int b = 0; b < h; b++) {
 3089              		.loc 1 616 0
 3090 0078 4FF0000A 		mov	r10, #0
 3091 007c F8E7     		b	.L300
 3092              	.LVL321:
 3093              	.L318:
 3094              	.LBE66:
 3095              	.LBB69:
 3096              	.LBB64:
ARM GAS  C:\Users\ADMINI~1\AppData\Local\Temp\cc6xb3Hf.s 			page 69


 624:Src/MyOLED.c  **** 			for (int a = 0; a < w; a++) {
 625:Src/MyOLED.c  **** 				NoShowDrawDot(x + a	, y + b, !(Picture[b*(((w-1)/8)+1) + a/8] & (1 << (7 - a%8))));
 3097              		.loc 1 625 0 discriminator 3
 3098 007e 0733     		adds	r3, r3, #7
 3099 0080 20E0     		b	.L307
 3100              	.L308:
 3101 0082 03EBE203 		add	r3, r3, r2, asr #3
 3102 0086 18F80320 		ldrb	r2, [r8, r3]	@ zero_extendqisi2
 3103 008a 6142     		rsbs	r1, r4, #0
 3104 008c 04F00703 		and	r3, r4, #7
 3105 0090 01F00701 		and	r1, r1, #7
 3106 0094 58BF     		it	pl
 3107 0096 4B42     		rsbpl	r3, r1, #0
 3108 0098 C3F10703 		rsb	r3, r3, #7
 3109 009c 42FA03F3 		asr	r3, r2, r3
 3110 00a0 13F0010F 		tst	r3, #1
 3111 00a4 07EB0A01 		add	r1, r7, r10
 3112 00a8 06EB0400 		add	r0, r6, r4
 3113 00ac 0CBF     		ite	eq
 3114 00ae 0122     		moveq	r2, #1
 3115 00b0 0022     		movne	r2, #0
 3116 00b2 C9B2     		uxtb	r1, r1
 3117 00b4 C0B2     		uxtb	r0, r0
 3118 00b6 FFF7FEFF 		bl	NoShowDrawDot
 3119              	.LVL322:
 624:Src/MyOLED.c  **** 			for (int a = 0; a < w; a++) {
 3120              		.loc 1 624 0 discriminator 3
 3121 00ba 0134     		adds	r4, r4, #1
 3122              	.LVL323:
 3123              	.L310:
 624:Src/MyOLED.c  **** 			for (int a = 0; a < w; a++) {
 3124              		.loc 1 624 0 is_stmt 0 discriminator 1
 3125 00bc A542     		cmp	r5, r4
 3126 00be 09DD     		ble	.L317
 3127              		.loc 1 625 0 is_stmt 1 discriminator 3
 3128 00c0 6B1E     		subs	r3, r5, #1
 3129 00c2 DCD4     		bmi	.L318
 3130              	.L307:
 3131 00c4 DB10     		asrs	r3, r3, #3
 3132 00c6 03FB0AA3 		mla	r3, r3, r10, r10
 3133 00ca 2246     		mov	r2, r4
 3134 00cc 002C     		cmp	r4, #0
 3135 00ce D8DA     		bge	.L308
 3136              	.LVL324:
 3137 00d0 E21D     		adds	r2, r4, #7
 3138              	.LVL325:
 3139 00d2 D6E7     		b	.L308
 3140              	.L317:
 3141              	.LBE64:
 623:Src/MyOLED.c  **** 			for (int a = 0; a < w; a++) {
 3142              		.loc 1 623 0 discriminator 2
 3143 00d4 0AF1010A 		add	r10, r10, #1
 3144              	.LVL326:
 3145              	.L301:
 623:Src/MyOLED.c  **** 			for (int a = 0; a < w; a++) {
 3146              		.loc 1 623 0 is_stmt 0 discriminator 1
 3147 00d8 D145     		cmp	r9, r10
ARM GAS  C:\Users\ADMINI~1\AppData\Local\Temp\cc6xb3Hf.s 			page 70


 3148 00da 01DD     		ble	.L299
 3149              	.LBB65:
 624:Src/MyOLED.c  **** 			for (int a = 0; a < w; a++) {
 3150              		.loc 1 624 0 is_stmt 1
 3151 00dc 0024     		movs	r4, #0
 3152 00de EDE7     		b	.L310
 3153              	.LVL327:
 3154              	.L299:
 3155              	.LBE65:
 3156              	.LBE69:
 626:Src/MyOLED.c  **** 			}
 627:Src/MyOLED.c  **** 		}
 628:Src/MyOLED.c  **** 	}
 629:Src/MyOLED.c  **** }
 3157              		.loc 1 629 0
 3158 00e0 BDE8F087 		pop	{r4, r5, r6, r7, r8, r9, r10, pc}
 3159              		.cfi_endproc
 3160              	.LFE92:
 3162              		.comm	Dot_Data,1056,4
 3163              		.global	dcpin
 3164              		.global	sspin
 3165              		.global	respin
 3166              		.global	dcgpio
 3167              		.global	ssgpio
 3168              		.global	resgpio
 3169              		.global	F8X16
 3170              		.global	F6x8
 3171              		.global	NumF3x5
 3172              		.global	NumToSmallCharStr
 3173              		.global	NumToBigCharStr
 3174              		.section	.bss.dcgpio,"aw",%nobits
 3175              		.align	2
 3176              		.set	.LANCHOR2,. + 0
 3179              	dcgpio:
 3180 0000 00000000 		.space	4
 3181              		.section	.bss.dcpin,"aw",%nobits
 3182              		.set	.LANCHOR3,. + 0
 3185              	dcpin:
 3186 0000 00       		.space	1
 3187              		.section	.bss.resgpio,"aw",%nobits
 3188              		.align	2
 3189              		.set	.LANCHOR0,. + 0
 3192              	resgpio:
 3193 0000 00000000 		.space	4
 3194              		.section	.bss.respin,"aw",%nobits
 3195              		.set	.LANCHOR1,. + 0
 3198              	respin:
 3199 0000 00       		.space	1
 3200              		.section	.bss.ssgpio,"aw",%nobits
 3201              		.align	2
 3202              		.set	.LANCHOR4,. + 0
 3205              	ssgpio:
 3206 0000 00000000 		.space	4
 3207              		.section	.bss.sspin,"aw",%nobits
 3208              		.set	.LANCHOR5,. + 0
 3211              	sspin:
 3212 0000 00       		.space	1
ARM GAS  C:\Users\ADMINI~1\AppData\Local\Temp\cc6xb3Hf.s 			page 71


 3213              		.section	.data.NumToBigCharStr,"aw",%progbits
 3214              		.align	2
 3215              		.set	.LANCHOR8,. + 0
 3218              	NumToBigCharStr:
 3219 0000 30       		.byte	48
 3220 0001 31       		.byte	49
 3221 0002 32       		.byte	50
 3222 0003 33       		.byte	51
 3223 0004 34       		.byte	52
 3224 0005 35       		.byte	53
 3225 0006 36       		.byte	54
 3226 0007 37       		.byte	55
 3227 0008 38       		.byte	56
 3228 0009 39       		.byte	57
 3229 000a 41       		.byte	65
 3230 000b 42       		.byte	66
 3231 000c 43       		.byte	67
 3232 000d 44       		.byte	68
 3233 000e 45       		.byte	69
 3234 000f 46       		.byte	70
 3235              		.section	.data.NumToSmallCharStr,"aw",%progbits
 3236              		.align	2
 3237              		.set	.LANCHOR9,. + 0
 3240              	NumToSmallCharStr:
 3241 0000 30       		.byte	48
 3242 0001 31       		.byte	49
 3243 0002 32       		.byte	50
 3244 0003 33       		.byte	51
 3245 0004 34       		.byte	52
 3246 0005 35       		.byte	53
 3247 0006 36       		.byte	54
 3248 0007 37       		.byte	55
 3249 0008 38       		.byte	56
 3250 0009 39       		.byte	57
 3251 000a 60       		.byte	96
 3252 000b 61       		.byte	97
 3253 000c 62       		.byte	98
 3254 000d 63       		.byte	99
 3255 000e 64       		.byte	100
 3256 000f 65       		.byte	101
 3257              		.section	.rodata.F6x8,"a",%progbits
 3258              		.align	2
 3259              		.set	.LANCHOR6,. + 0
 3262              	F6x8:
 3263 0000 00       		.byte	0
 3264 0001 00       		.byte	0
 3265 0002 00       		.byte	0
 3266 0003 00       		.byte	0
 3267 0004 00       		.byte	0
 3268 0005 00       		.byte	0
 3269 0006 00       		.byte	0
 3270 0007 00       		.byte	0
 3271 0008 00       		.byte	0
 3272 0009 2F       		.byte	47
 3273 000a 00       		.byte	0
 3274 000b 00       		.byte	0
 3275 000c 00       		.byte	0
ARM GAS  C:\Users\ADMINI~1\AppData\Local\Temp\cc6xb3Hf.s 			page 72


 3276 000d 00       		.byte	0
 3277 000e 07       		.byte	7
 3278 000f 00       		.byte	0
 3279 0010 07       		.byte	7
 3280 0011 00       		.byte	0
 3281 0012 00       		.byte	0
 3282 0013 14       		.byte	20
 3283 0014 7F       		.byte	127
 3284 0015 14       		.byte	20
 3285 0016 7F       		.byte	127
 3286 0017 14       		.byte	20
 3287 0018 00       		.byte	0
 3288 0019 24       		.byte	36
 3289 001a 2A       		.byte	42
 3290 001b 7F       		.byte	127
 3291 001c 2A       		.byte	42
 3292 001d 12       		.byte	18
 3293 001e 00       		.byte	0
 3294 001f 62       		.byte	98
 3295 0020 64       		.byte	100
 3296 0021 08       		.byte	8
 3297 0022 13       		.byte	19
 3298 0023 23       		.byte	35
 3299 0024 00       		.byte	0
 3300 0025 36       		.byte	54
 3301 0026 49       		.byte	73
 3302 0027 55       		.byte	85
 3303 0028 22       		.byte	34
 3304 0029 50       		.byte	80
 3305 002a 00       		.byte	0
 3306 002b 00       		.byte	0
 3307 002c 05       		.byte	5
 3308 002d 03       		.byte	3
 3309 002e 00       		.byte	0
 3310 002f 00       		.byte	0
 3311 0030 00       		.byte	0
 3312 0031 00       		.byte	0
 3313 0032 1C       		.byte	28
 3314 0033 22       		.byte	34
 3315 0034 41       		.byte	65
 3316 0035 00       		.byte	0
 3317 0036 00       		.byte	0
 3318 0037 00       		.byte	0
 3319 0038 41       		.byte	65
 3320 0039 22       		.byte	34
 3321 003a 1C       		.byte	28
 3322 003b 00       		.byte	0
 3323 003c 00       		.byte	0
 3324 003d 14       		.byte	20
 3325 003e 08       		.byte	8
 3326 003f 3E       		.byte	62
 3327 0040 08       		.byte	8
 3328 0041 14       		.byte	20
 3329 0042 00       		.byte	0
 3330 0043 08       		.byte	8
 3331 0044 08       		.byte	8
 3332 0045 3E       		.byte	62
ARM GAS  C:\Users\ADMINI~1\AppData\Local\Temp\cc6xb3Hf.s 			page 73


 3333 0046 08       		.byte	8
 3334 0047 08       		.byte	8
 3335 0048 00       		.byte	0
 3336 0049 00       		.byte	0
 3337 004a 00       		.byte	0
 3338 004b A0       		.byte	-96
 3339 004c 60       		.byte	96
 3340 004d 00       		.byte	0
 3341 004e 00       		.byte	0
 3342 004f 08       		.byte	8
 3343 0050 08       		.byte	8
 3344 0051 08       		.byte	8
 3345 0052 08       		.byte	8
 3346 0053 08       		.byte	8
 3347 0054 00       		.byte	0
 3348 0055 00       		.byte	0
 3349 0056 60       		.byte	96
 3350 0057 60       		.byte	96
 3351 0058 00       		.byte	0
 3352 0059 00       		.byte	0
 3353 005a 00       		.byte	0
 3354 005b 20       		.byte	32
 3355 005c 10       		.byte	16
 3356 005d 08       		.byte	8
 3357 005e 04       		.byte	4
 3358 005f 02       		.byte	2
 3359 0060 00       		.byte	0
 3360 0061 3E       		.byte	62
 3361 0062 51       		.byte	81
 3362 0063 49       		.byte	73
 3363 0064 45       		.byte	69
 3364 0065 3E       		.byte	62
 3365 0066 00       		.byte	0
 3366 0067 00       		.byte	0
 3367 0068 42       		.byte	66
 3368 0069 7F       		.byte	127
 3369 006a 40       		.byte	64
 3370 006b 00       		.byte	0
 3371 006c 00       		.byte	0
 3372 006d 42       		.byte	66
 3373 006e 61       		.byte	97
 3374 006f 51       		.byte	81
 3375 0070 49       		.byte	73
 3376 0071 46       		.byte	70
 3377 0072 00       		.byte	0
 3378 0073 21       		.byte	33
 3379 0074 41       		.byte	65
 3380 0075 45       		.byte	69
 3381 0076 4B       		.byte	75
 3382 0077 31       		.byte	49
 3383 0078 00       		.byte	0
 3384 0079 18       		.byte	24
 3385 007a 14       		.byte	20
 3386 007b 12       		.byte	18
 3387 007c 7F       		.byte	127
 3388 007d 10       		.byte	16
 3389 007e 00       		.byte	0
ARM GAS  C:\Users\ADMINI~1\AppData\Local\Temp\cc6xb3Hf.s 			page 74


 3390 007f 27       		.byte	39
 3391 0080 45       		.byte	69
 3392 0081 45       		.byte	69
 3393 0082 45       		.byte	69
 3394 0083 39       		.byte	57
 3395 0084 00       		.byte	0
 3396 0085 3C       		.byte	60
 3397 0086 4A       		.byte	74
 3398 0087 49       		.byte	73
 3399 0088 49       		.byte	73
 3400 0089 30       		.byte	48
 3401 008a 00       		.byte	0
 3402 008b 01       		.byte	1
 3403 008c 71       		.byte	113
 3404 008d 09       		.byte	9
 3405 008e 05       		.byte	5
 3406 008f 03       		.byte	3
 3407 0090 00       		.byte	0
 3408 0091 36       		.byte	54
 3409 0092 49       		.byte	73
 3410 0093 49       		.byte	73
 3411 0094 49       		.byte	73
 3412 0095 36       		.byte	54
 3413 0096 00       		.byte	0
 3414 0097 06       		.byte	6
 3415 0098 49       		.byte	73
 3416 0099 49       		.byte	73
 3417 009a 29       		.byte	41
 3418 009b 1E       		.byte	30
 3419 009c 00       		.byte	0
 3420 009d 00       		.byte	0
 3421 009e 36       		.byte	54
 3422 009f 36       		.byte	54
 3423 00a0 00       		.byte	0
 3424 00a1 00       		.byte	0
 3425 00a2 00       		.byte	0
 3426 00a3 00       		.byte	0
 3427 00a4 56       		.byte	86
 3428 00a5 36       		.byte	54
 3429 00a6 00       		.byte	0
 3430 00a7 00       		.byte	0
 3431 00a8 00       		.byte	0
 3432 00a9 08       		.byte	8
 3433 00aa 14       		.byte	20
 3434 00ab 22       		.byte	34
 3435 00ac 41       		.byte	65
 3436 00ad 00       		.byte	0
 3437 00ae 00       		.byte	0
 3438 00af 14       		.byte	20
 3439 00b0 14       		.byte	20
 3440 00b1 14       		.byte	20
 3441 00b2 14       		.byte	20
 3442 00b3 14       		.byte	20
 3443 00b4 00       		.byte	0
 3444 00b5 00       		.byte	0
 3445 00b6 41       		.byte	65
 3446 00b7 22       		.byte	34
ARM GAS  C:\Users\ADMINI~1\AppData\Local\Temp\cc6xb3Hf.s 			page 75


 3447 00b8 14       		.byte	20
 3448 00b9 08       		.byte	8
 3449 00ba 00       		.byte	0
 3450 00bb 02       		.byte	2
 3451 00bc 01       		.byte	1
 3452 00bd 51       		.byte	81
 3453 00be 09       		.byte	9
 3454 00bf 06       		.byte	6
 3455 00c0 00       		.byte	0
 3456 00c1 32       		.byte	50
 3457 00c2 49       		.byte	73
 3458 00c3 59       		.byte	89
 3459 00c4 51       		.byte	81
 3460 00c5 3E       		.byte	62
 3461 00c6 00       		.byte	0
 3462 00c7 7C       		.byte	124
 3463 00c8 12       		.byte	18
 3464 00c9 11       		.byte	17
 3465 00ca 12       		.byte	18
 3466 00cb 7C       		.byte	124
 3467 00cc 00       		.byte	0
 3468 00cd 7F       		.byte	127
 3469 00ce 49       		.byte	73
 3470 00cf 49       		.byte	73
 3471 00d0 49       		.byte	73
 3472 00d1 36       		.byte	54
 3473 00d2 00       		.byte	0
 3474 00d3 3E       		.byte	62
 3475 00d4 41       		.byte	65
 3476 00d5 41       		.byte	65
 3477 00d6 41       		.byte	65
 3478 00d7 22       		.byte	34
 3479 00d8 00       		.byte	0
 3480 00d9 7F       		.byte	127
 3481 00da 41       		.byte	65
 3482 00db 41       		.byte	65
 3483 00dc 22       		.byte	34
 3484 00dd 1C       		.byte	28
 3485 00de 00       		.byte	0
 3486 00df 7F       		.byte	127
 3487 00e0 49       		.byte	73
 3488 00e1 49       		.byte	73
 3489 00e2 49       		.byte	73
 3490 00e3 41       		.byte	65
 3491 00e4 00       		.byte	0
 3492 00e5 7F       		.byte	127
 3493 00e6 09       		.byte	9
 3494 00e7 09       		.byte	9
 3495 00e8 09       		.byte	9
 3496 00e9 01       		.byte	1
 3497 00ea 00       		.byte	0
 3498 00eb 3E       		.byte	62
 3499 00ec 41       		.byte	65
 3500 00ed 49       		.byte	73
 3501 00ee 49       		.byte	73
 3502 00ef 7A       		.byte	122
 3503 00f0 00       		.byte	0
ARM GAS  C:\Users\ADMINI~1\AppData\Local\Temp\cc6xb3Hf.s 			page 76


 3504 00f1 7F       		.byte	127
 3505 00f2 08       		.byte	8
 3506 00f3 08       		.byte	8
 3507 00f4 08       		.byte	8
 3508 00f5 7F       		.byte	127
 3509 00f6 00       		.byte	0
 3510 00f7 00       		.byte	0
 3511 00f8 41       		.byte	65
 3512 00f9 7F       		.byte	127
 3513 00fa 41       		.byte	65
 3514 00fb 00       		.byte	0
 3515 00fc 00       		.byte	0
 3516 00fd 20       		.byte	32
 3517 00fe 40       		.byte	64
 3518 00ff 41       		.byte	65
 3519 0100 3F       		.byte	63
 3520 0101 01       		.byte	1
 3521 0102 00       		.byte	0
 3522 0103 7F       		.byte	127
 3523 0104 08       		.byte	8
 3524 0105 14       		.byte	20
 3525 0106 22       		.byte	34
 3526 0107 41       		.byte	65
 3527 0108 00       		.byte	0
 3528 0109 7F       		.byte	127
 3529 010a 40       		.byte	64
 3530 010b 40       		.byte	64
 3531 010c 40       		.byte	64
 3532 010d 40       		.byte	64
 3533 010e 00       		.byte	0
 3534 010f 7F       		.byte	127
 3535 0110 02       		.byte	2
 3536 0111 0C       		.byte	12
 3537 0112 02       		.byte	2
 3538 0113 7F       		.byte	127
 3539 0114 00       		.byte	0
 3540 0115 7F       		.byte	127
 3541 0116 04       		.byte	4
 3542 0117 08       		.byte	8
 3543 0118 10       		.byte	16
 3544 0119 7F       		.byte	127
 3545 011a 00       		.byte	0
 3546 011b 3E       		.byte	62
 3547 011c 41       		.byte	65
 3548 011d 41       		.byte	65
 3549 011e 41       		.byte	65
 3550 011f 3E       		.byte	62
 3551 0120 00       		.byte	0
 3552 0121 7F       		.byte	127
 3553 0122 09       		.byte	9
 3554 0123 09       		.byte	9
 3555 0124 09       		.byte	9
 3556 0125 06       		.byte	6
 3557 0126 00       		.byte	0
 3558 0127 3E       		.byte	62
 3559 0128 41       		.byte	65
 3560 0129 51       		.byte	81
ARM GAS  C:\Users\ADMINI~1\AppData\Local\Temp\cc6xb3Hf.s 			page 77


 3561 012a 21       		.byte	33
 3562 012b 5E       		.byte	94
 3563 012c 00       		.byte	0
 3564 012d 7F       		.byte	127
 3565 012e 09       		.byte	9
 3566 012f 19       		.byte	25
 3567 0130 29       		.byte	41
 3568 0131 46       		.byte	70
 3569 0132 00       		.byte	0
 3570 0133 46       		.byte	70
 3571 0134 49       		.byte	73
 3572 0135 49       		.byte	73
 3573 0136 49       		.byte	73
 3574 0137 31       		.byte	49
 3575 0138 00       		.byte	0
 3576 0139 01       		.byte	1
 3577 013a 01       		.byte	1
 3578 013b 7F       		.byte	127
 3579 013c 01       		.byte	1
 3580 013d 01       		.byte	1
 3581 013e 00       		.byte	0
 3582 013f 3F       		.byte	63
 3583 0140 40       		.byte	64
 3584 0141 40       		.byte	64
 3585 0142 40       		.byte	64
 3586 0143 3F       		.byte	63
 3587 0144 00       		.byte	0
 3588 0145 1F       		.byte	31
 3589 0146 20       		.byte	32
 3590 0147 40       		.byte	64
 3591 0148 20       		.byte	32
 3592 0149 1F       		.byte	31
 3593 014a 00       		.byte	0
 3594 014b 3F       		.byte	63
 3595 014c 40       		.byte	64
 3596 014d 38       		.byte	56
 3597 014e 40       		.byte	64
 3598 014f 3F       		.byte	63
 3599 0150 00       		.byte	0
 3600 0151 63       		.byte	99
 3601 0152 14       		.byte	20
 3602 0153 08       		.byte	8
 3603 0154 14       		.byte	20
 3604 0155 63       		.byte	99
 3605 0156 00       		.byte	0
 3606 0157 07       		.byte	7
 3607 0158 08       		.byte	8
 3608 0159 70       		.byte	112
 3609 015a 08       		.byte	8
 3610 015b 07       		.byte	7
 3611 015c 00       		.byte	0
 3612 015d 61       		.byte	97
 3613 015e 51       		.byte	81
 3614 015f 49       		.byte	73
 3615 0160 45       		.byte	69
 3616 0161 43       		.byte	67
 3617 0162 00       		.byte	0
ARM GAS  C:\Users\ADMINI~1\AppData\Local\Temp\cc6xb3Hf.s 			page 78


 3618 0163 00       		.byte	0
 3619 0164 7F       		.byte	127
 3620 0165 41       		.byte	65
 3621 0166 41       		.byte	65
 3622 0167 00       		.byte	0
 3623 0168 00       		.byte	0
 3624 0169 02       		.byte	2
 3625 016a 04       		.byte	4
 3626 016b 08       		.byte	8
 3627 016c 10       		.byte	16
 3628 016d 20       		.byte	32
 3629 016e 00       		.byte	0
 3630 016f 00       		.byte	0
 3631 0170 41       		.byte	65
 3632 0171 41       		.byte	65
 3633 0172 7F       		.byte	127
 3634 0173 00       		.byte	0
 3635 0174 00       		.byte	0
 3636 0175 04       		.byte	4
 3637 0176 02       		.byte	2
 3638 0177 01       		.byte	1
 3639 0178 02       		.byte	2
 3640 0179 04       		.byte	4
 3641 017a 00       		.byte	0
 3642 017b 40       		.byte	64
 3643 017c 40       		.byte	64
 3644 017d 40       		.byte	64
 3645 017e 40       		.byte	64
 3646 017f 40       		.byte	64
 3647 0180 00       		.byte	0
 3648 0181 00       		.byte	0
 3649 0182 01       		.byte	1
 3650 0183 02       		.byte	2
 3651 0184 04       		.byte	4
 3652 0185 00       		.byte	0
 3653 0186 00       		.byte	0
 3654 0187 20       		.byte	32
 3655 0188 54       		.byte	84
 3656 0189 54       		.byte	84
 3657 018a 54       		.byte	84
 3658 018b 78       		.byte	120
 3659 018c 00       		.byte	0
 3660 018d 7F       		.byte	127
 3661 018e 48       		.byte	72
 3662 018f 44       		.byte	68
 3663 0190 44       		.byte	68
 3664 0191 38       		.byte	56
 3665 0192 00       		.byte	0
 3666 0193 38       		.byte	56
 3667 0194 44       		.byte	68
 3668 0195 44       		.byte	68
 3669 0196 44       		.byte	68
 3670 0197 20       		.byte	32
 3671 0198 00       		.byte	0
 3672 0199 38       		.byte	56
 3673 019a 44       		.byte	68
 3674 019b 44       		.byte	68
ARM GAS  C:\Users\ADMINI~1\AppData\Local\Temp\cc6xb3Hf.s 			page 79


 3675 019c 48       		.byte	72
 3676 019d 7F       		.byte	127
 3677 019e 00       		.byte	0
 3678 019f 38       		.byte	56
 3679 01a0 54       		.byte	84
 3680 01a1 54       		.byte	84
 3681 01a2 54       		.byte	84
 3682 01a3 18       		.byte	24
 3683 01a4 00       		.byte	0
 3684 01a5 08       		.byte	8
 3685 01a6 7E       		.byte	126
 3686 01a7 09       		.byte	9
 3687 01a8 01       		.byte	1
 3688 01a9 02       		.byte	2
 3689 01aa 00       		.byte	0
 3690 01ab 18       		.byte	24
 3691 01ac A4       		.byte	-92
 3692 01ad A4       		.byte	-92
 3693 01ae A4       		.byte	-92
 3694 01af 7C       		.byte	124
 3695 01b0 00       		.byte	0
 3696 01b1 7F       		.byte	127
 3697 01b2 08       		.byte	8
 3698 01b3 04       		.byte	4
 3699 01b4 04       		.byte	4
 3700 01b5 78       		.byte	120
 3701 01b6 00       		.byte	0
 3702 01b7 00       		.byte	0
 3703 01b8 44       		.byte	68
 3704 01b9 7D       		.byte	125
 3705 01ba 40       		.byte	64
 3706 01bb 00       		.byte	0
 3707 01bc 00       		.byte	0
 3708 01bd 40       		.byte	64
 3709 01be 80       		.byte	-128
 3710 01bf 84       		.byte	-124
 3711 01c0 7D       		.byte	125
 3712 01c1 00       		.byte	0
 3713 01c2 00       		.byte	0
 3714 01c3 7F       		.byte	127
 3715 01c4 10       		.byte	16
 3716 01c5 28       		.byte	40
 3717 01c6 44       		.byte	68
 3718 01c7 00       		.byte	0
 3719 01c8 00       		.byte	0
 3720 01c9 00       		.byte	0
 3721 01ca 41       		.byte	65
 3722 01cb 7F       		.byte	127
 3723 01cc 40       		.byte	64
 3724 01cd 00       		.byte	0
 3725 01ce 00       		.byte	0
 3726 01cf 7C       		.byte	124
 3727 01d0 04       		.byte	4
 3728 01d1 18       		.byte	24
 3729 01d2 04       		.byte	4
 3730 01d3 78       		.byte	120
 3731 01d4 00       		.byte	0
ARM GAS  C:\Users\ADMINI~1\AppData\Local\Temp\cc6xb3Hf.s 			page 80


 3732 01d5 7C       		.byte	124
 3733 01d6 08       		.byte	8
 3734 01d7 04       		.byte	4
 3735 01d8 04       		.byte	4
 3736 01d9 78       		.byte	120
 3737 01da 00       		.byte	0
 3738 01db 38       		.byte	56
 3739 01dc 44       		.byte	68
 3740 01dd 44       		.byte	68
 3741 01de 44       		.byte	68
 3742 01df 38       		.byte	56
 3743 01e0 00       		.byte	0
 3744 01e1 FC       		.byte	-4
 3745 01e2 24       		.byte	36
 3746 01e3 24       		.byte	36
 3747 01e4 24       		.byte	36
 3748 01e5 18       		.byte	24
 3749 01e6 00       		.byte	0
 3750 01e7 18       		.byte	24
 3751 01e8 24       		.byte	36
 3752 01e9 24       		.byte	36
 3753 01ea 18       		.byte	24
 3754 01eb FC       		.byte	-4
 3755 01ec 00       		.byte	0
 3756 01ed 7C       		.byte	124
 3757 01ee 08       		.byte	8
 3758 01ef 04       		.byte	4
 3759 01f0 04       		.byte	4
 3760 01f1 08       		.byte	8
 3761 01f2 00       		.byte	0
 3762 01f3 48       		.byte	72
 3763 01f4 54       		.byte	84
 3764 01f5 54       		.byte	84
 3765 01f6 54       		.byte	84
 3766 01f7 20       		.byte	32
 3767 01f8 00       		.byte	0
 3768 01f9 04       		.byte	4
 3769 01fa 3F       		.byte	63
 3770 01fb 44       		.byte	68
 3771 01fc 40       		.byte	64
 3772 01fd 20       		.byte	32
 3773 01fe 00       		.byte	0
 3774 01ff 3C       		.byte	60
 3775 0200 40       		.byte	64
 3776 0201 40       		.byte	64
 3777 0202 20       		.byte	32
 3778 0203 7C       		.byte	124
 3779 0204 00       		.byte	0
 3780 0205 1C       		.byte	28
 3781 0206 20       		.byte	32
 3782 0207 40       		.byte	64
 3783 0208 20       		.byte	32
 3784 0209 1C       		.byte	28
 3785 020a 00       		.byte	0
 3786 020b 3C       		.byte	60
 3787 020c 40       		.byte	64
 3788 020d 30       		.byte	48
ARM GAS  C:\Users\ADMINI~1\AppData\Local\Temp\cc6xb3Hf.s 			page 81


 3789 020e 40       		.byte	64
 3790 020f 3C       		.byte	60
 3791 0210 00       		.byte	0
 3792 0211 44       		.byte	68
 3793 0212 28       		.byte	40
 3794 0213 10       		.byte	16
 3795 0214 28       		.byte	40
 3796 0215 44       		.byte	68
 3797 0216 00       		.byte	0
 3798 0217 1C       		.byte	28
 3799 0218 A0       		.byte	-96
 3800 0219 A0       		.byte	-96
 3801 021a A0       		.byte	-96
 3802 021b 7C       		.byte	124
 3803 021c 00       		.byte	0
 3804 021d 44       		.byte	68
 3805 021e 64       		.byte	100
 3806 021f 54       		.byte	84
 3807 0220 4C       		.byte	76
 3808 0221 44       		.byte	68
 3809 0222 14       		.byte	20
 3810 0223 14       		.byte	20
 3811 0224 14       		.byte	20
 3812 0225 14       		.byte	20
 3813 0226 14       		.byte	20
 3814 0227 14       		.byte	20
 3815              		.section	.rodata.F8X16,"a",%progbits
 3816              		.align	2
 3817              		.set	.LANCHOR7,. + 0
 3820              	F8X16:
 3821 0000 00       		.byte	0
 3822 0001 00       		.byte	0
 3823 0002 00       		.byte	0
 3824 0003 00       		.byte	0
 3825 0004 00       		.byte	0
 3826 0005 00       		.byte	0
 3827 0006 00       		.byte	0
 3828 0007 00       		.byte	0
 3829 0008 00       		.byte	0
 3830 0009 00       		.byte	0
 3831 000a 00       		.byte	0
 3832 000b 00       		.byte	0
 3833 000c 00       		.byte	0
 3834 000d 00       		.byte	0
 3835 000e 00       		.byte	0
 3836 000f 00       		.byte	0
 3837 0010 00       		.byte	0
 3838 0011 00       		.byte	0
 3839 0012 00       		.byte	0
 3840 0013 F8       		.byte	-8
 3841 0014 00       		.byte	0
 3842 0015 00       		.byte	0
 3843 0016 00       		.byte	0
 3844 0017 00       		.byte	0
 3845 0018 00       		.byte	0
 3846 0019 00       		.byte	0
 3847 001a 00       		.byte	0
ARM GAS  C:\Users\ADMINI~1\AppData\Local\Temp\cc6xb3Hf.s 			page 82


 3848 001b 33       		.byte	51
 3849 001c 30       		.byte	48
 3850 001d 00       		.byte	0
 3851 001e 00       		.byte	0
 3852 001f 00       		.byte	0
 3853 0020 00       		.byte	0
 3854 0021 10       		.byte	16
 3855 0022 0C       		.byte	12
 3856 0023 06       		.byte	6
 3857 0024 10       		.byte	16
 3858 0025 0C       		.byte	12
 3859 0026 06       		.byte	6
 3860 0027 00       		.byte	0
 3861 0028 00       		.byte	0
 3862 0029 00       		.byte	0
 3863 002a 00       		.byte	0
 3864 002b 00       		.byte	0
 3865 002c 00       		.byte	0
 3866 002d 00       		.byte	0
 3867 002e 00       		.byte	0
 3868 002f 00       		.byte	0
 3869 0030 40       		.byte	64
 3870 0031 C0       		.byte	-64
 3871 0032 78       		.byte	120
 3872 0033 40       		.byte	64
 3873 0034 C0       		.byte	-64
 3874 0035 78       		.byte	120
 3875 0036 40       		.byte	64
 3876 0037 00       		.byte	0
 3877 0038 04       		.byte	4
 3878 0039 3F       		.byte	63
 3879 003a 04       		.byte	4
 3880 003b 04       		.byte	4
 3881 003c 3F       		.byte	63
 3882 003d 04       		.byte	4
 3883 003e 04       		.byte	4
 3884 003f 00       		.byte	0
 3885 0040 00       		.byte	0
 3886 0041 70       		.byte	112
 3887 0042 88       		.byte	-120
 3888 0043 FC       		.byte	-4
 3889 0044 08       		.byte	8
 3890 0045 30       		.byte	48
 3891 0046 00       		.byte	0
 3892 0047 00       		.byte	0
 3893 0048 00       		.byte	0
 3894 0049 18       		.byte	24
 3895 004a 20       		.byte	32
 3896 004b FF       		.byte	-1
 3897 004c 21       		.byte	33
 3898 004d 1E       		.byte	30
 3899 004e 00       		.byte	0
 3900 004f 00       		.byte	0
 3901 0050 F0       		.byte	-16
 3902 0051 08       		.byte	8
 3903 0052 F0       		.byte	-16
 3904 0053 00       		.byte	0
ARM GAS  C:\Users\ADMINI~1\AppData\Local\Temp\cc6xb3Hf.s 			page 83


 3905 0054 E0       		.byte	-32
 3906 0055 18       		.byte	24
 3907 0056 00       		.byte	0
 3908 0057 00       		.byte	0
 3909 0058 00       		.byte	0
 3910 0059 21       		.byte	33
 3911 005a 1C       		.byte	28
 3912 005b 03       		.byte	3
 3913 005c 1E       		.byte	30
 3914 005d 21       		.byte	33
 3915 005e 1E       		.byte	30
 3916 005f 00       		.byte	0
 3917 0060 00       		.byte	0
 3918 0061 F0       		.byte	-16
 3919 0062 08       		.byte	8
 3920 0063 88       		.byte	-120
 3921 0064 70       		.byte	112
 3922 0065 00       		.byte	0
 3923 0066 00       		.byte	0
 3924 0067 00       		.byte	0
 3925 0068 1E       		.byte	30
 3926 0069 21       		.byte	33
 3927 006a 23       		.byte	35
 3928 006b 24       		.byte	36
 3929 006c 19       		.byte	25
 3930 006d 27       		.byte	39
 3931 006e 21       		.byte	33
 3932 006f 10       		.byte	16
 3933 0070 10       		.byte	16
 3934 0071 16       		.byte	22
 3935 0072 0E       		.byte	14
 3936 0073 00       		.byte	0
 3937 0074 00       		.byte	0
 3938 0075 00       		.byte	0
 3939 0076 00       		.byte	0
 3940 0077 00       		.byte	0
 3941 0078 00       		.byte	0
 3942 0079 00       		.byte	0
 3943 007a 00       		.byte	0
 3944 007b 00       		.byte	0
 3945 007c 00       		.byte	0
 3946 007d 00       		.byte	0
 3947 007e 00       		.byte	0
 3948 007f 00       		.byte	0
 3949 0080 00       		.byte	0
 3950 0081 00       		.byte	0
 3951 0082 00       		.byte	0
 3952 0083 E0       		.byte	-32
 3953 0084 18       		.byte	24
 3954 0085 04       		.byte	4
 3955 0086 02       		.byte	2
 3956 0087 00       		.byte	0
 3957 0088 00       		.byte	0
 3958 0089 00       		.byte	0
 3959 008a 00       		.byte	0
 3960 008b 07       		.byte	7
 3961 008c 18       		.byte	24
ARM GAS  C:\Users\ADMINI~1\AppData\Local\Temp\cc6xb3Hf.s 			page 84


 3962 008d 20       		.byte	32
 3963 008e 40       		.byte	64
 3964 008f 00       		.byte	0
 3965 0090 00       		.byte	0
 3966 0091 02       		.byte	2
 3967 0092 04       		.byte	4
 3968 0093 18       		.byte	24
 3969 0094 E0       		.byte	-32
 3970 0095 00       		.byte	0
 3971 0096 00       		.byte	0
 3972 0097 00       		.byte	0
 3973 0098 00       		.byte	0
 3974 0099 40       		.byte	64
 3975 009a 20       		.byte	32
 3976 009b 18       		.byte	24
 3977 009c 07       		.byte	7
 3978 009d 00       		.byte	0
 3979 009e 00       		.byte	0
 3980 009f 00       		.byte	0
 3981 00a0 40       		.byte	64
 3982 00a1 40       		.byte	64
 3983 00a2 80       		.byte	-128
 3984 00a3 F0       		.byte	-16
 3985 00a4 80       		.byte	-128
 3986 00a5 40       		.byte	64
 3987 00a6 40       		.byte	64
 3988 00a7 00       		.byte	0
 3989 00a8 02       		.byte	2
 3990 00a9 02       		.byte	2
 3991 00aa 01       		.byte	1
 3992 00ab 0F       		.byte	15
 3993 00ac 01       		.byte	1
 3994 00ad 02       		.byte	2
 3995 00ae 02       		.byte	2
 3996 00af 00       		.byte	0
 3997 00b0 00       		.byte	0
 3998 00b1 00       		.byte	0
 3999 00b2 00       		.byte	0
 4000 00b3 F0       		.byte	-16
 4001 00b4 00       		.byte	0
 4002 00b5 00       		.byte	0
 4003 00b6 00       		.byte	0
 4004 00b7 00       		.byte	0
 4005 00b8 01       		.byte	1
 4006 00b9 01       		.byte	1
 4007 00ba 01       		.byte	1
 4008 00bb 1F       		.byte	31
 4009 00bc 01       		.byte	1
 4010 00bd 01       		.byte	1
 4011 00be 01       		.byte	1
 4012 00bf 00       		.byte	0
 4013 00c0 00       		.byte	0
 4014 00c1 00       		.byte	0
 4015 00c2 00       		.byte	0
 4016 00c3 00       		.byte	0
 4017 00c4 00       		.byte	0
 4018 00c5 00       		.byte	0
ARM GAS  C:\Users\ADMINI~1\AppData\Local\Temp\cc6xb3Hf.s 			page 85


 4019 00c6 00       		.byte	0
 4020 00c7 00       		.byte	0
 4021 00c8 80       		.byte	-128
 4022 00c9 B0       		.byte	-80
 4023 00ca 70       		.byte	112
 4024 00cb 00       		.byte	0
 4025 00cc 00       		.byte	0
 4026 00cd 00       		.byte	0
 4027 00ce 00       		.byte	0
 4028 00cf 00       		.byte	0
 4029 00d0 00       		.byte	0
 4030 00d1 00       		.byte	0
 4031 00d2 00       		.byte	0
 4032 00d3 00       		.byte	0
 4033 00d4 00       		.byte	0
 4034 00d5 00       		.byte	0
 4035 00d6 00       		.byte	0
 4036 00d7 00       		.byte	0
 4037 00d8 00       		.byte	0
 4038 00d9 01       		.byte	1
 4039 00da 01       		.byte	1
 4040 00db 01       		.byte	1
 4041 00dc 01       		.byte	1
 4042 00dd 01       		.byte	1
 4043 00de 01       		.byte	1
 4044 00df 01       		.byte	1
 4045 00e0 00       		.byte	0
 4046 00e1 00       		.byte	0
 4047 00e2 00       		.byte	0
 4048 00e3 00       		.byte	0
 4049 00e4 00       		.byte	0
 4050 00e5 00       		.byte	0
 4051 00e6 00       		.byte	0
 4052 00e7 00       		.byte	0
 4053 00e8 00       		.byte	0
 4054 00e9 30       		.byte	48
 4055 00ea 30       		.byte	48
 4056 00eb 00       		.byte	0
 4057 00ec 00       		.byte	0
 4058 00ed 00       		.byte	0
 4059 00ee 00       		.byte	0
 4060 00ef 00       		.byte	0
 4061 00f0 00       		.byte	0
 4062 00f1 00       		.byte	0
 4063 00f2 00       		.byte	0
 4064 00f3 00       		.byte	0
 4065 00f4 80       		.byte	-128
 4066 00f5 60       		.byte	96
 4067 00f6 18       		.byte	24
 4068 00f7 04       		.byte	4
 4069 00f8 00       		.byte	0
 4070 00f9 60       		.byte	96
 4071 00fa 18       		.byte	24
 4072 00fb 06       		.byte	6
 4073 00fc 01       		.byte	1
 4074 00fd 00       		.byte	0
 4075 00fe 00       		.byte	0
ARM GAS  C:\Users\ADMINI~1\AppData\Local\Temp\cc6xb3Hf.s 			page 86


 4076 00ff 00       		.byte	0
 4077 0100 00       		.byte	0
 4078 0101 E0       		.byte	-32
 4079 0102 10       		.byte	16
 4080 0103 08       		.byte	8
 4081 0104 08       		.byte	8
 4082 0105 10       		.byte	16
 4083 0106 E0       		.byte	-32
 4084 0107 00       		.byte	0
 4085 0108 00       		.byte	0
 4086 0109 0F       		.byte	15
 4087 010a 10       		.byte	16
 4088 010b 20       		.byte	32
 4089 010c 20       		.byte	32
 4090 010d 10       		.byte	16
 4091 010e 0F       		.byte	15
 4092 010f 00       		.byte	0
 4093 0110 00       		.byte	0
 4094 0111 10       		.byte	16
 4095 0112 10       		.byte	16
 4096 0113 F8       		.byte	-8
 4097 0114 00       		.byte	0
 4098 0115 00       		.byte	0
 4099 0116 00       		.byte	0
 4100 0117 00       		.byte	0
 4101 0118 00       		.byte	0
 4102 0119 20       		.byte	32
 4103 011a 20       		.byte	32
 4104 011b 3F       		.byte	63
 4105 011c 20       		.byte	32
 4106 011d 20       		.byte	32
 4107 011e 00       		.byte	0
 4108 011f 00       		.byte	0
 4109 0120 00       		.byte	0
 4110 0121 70       		.byte	112
 4111 0122 08       		.byte	8
 4112 0123 08       		.byte	8
 4113 0124 08       		.byte	8
 4114 0125 88       		.byte	-120
 4115 0126 70       		.byte	112
 4116 0127 00       		.byte	0
 4117 0128 00       		.byte	0
 4118 0129 30       		.byte	48
 4119 012a 28       		.byte	40
 4120 012b 24       		.byte	36
 4121 012c 22       		.byte	34
 4122 012d 21       		.byte	33
 4123 012e 30       		.byte	48
 4124 012f 00       		.byte	0
 4125 0130 00       		.byte	0
 4126 0131 30       		.byte	48
 4127 0132 08       		.byte	8
 4128 0133 88       		.byte	-120
 4129 0134 88       		.byte	-120
 4130 0135 48       		.byte	72
 4131 0136 30       		.byte	48
 4132 0137 00       		.byte	0
ARM GAS  C:\Users\ADMINI~1\AppData\Local\Temp\cc6xb3Hf.s 			page 87


 4133 0138 00       		.byte	0
 4134 0139 18       		.byte	24
 4135 013a 20       		.byte	32
 4136 013b 20       		.byte	32
 4137 013c 20       		.byte	32
 4138 013d 11       		.byte	17
 4139 013e 0E       		.byte	14
 4140 013f 00       		.byte	0
 4141 0140 00       		.byte	0
 4142 0141 00       		.byte	0
 4143 0142 C0       		.byte	-64
 4144 0143 20       		.byte	32
 4145 0144 10       		.byte	16
 4146 0145 F8       		.byte	-8
 4147 0146 00       		.byte	0
 4148 0147 00       		.byte	0
 4149 0148 00       		.byte	0
 4150 0149 07       		.byte	7
 4151 014a 04       		.byte	4
 4152 014b 24       		.byte	36
 4153 014c 24       		.byte	36
 4154 014d 3F       		.byte	63
 4155 014e 24       		.byte	36
 4156 014f 00       		.byte	0
 4157 0150 00       		.byte	0
 4158 0151 F8       		.byte	-8
 4159 0152 08       		.byte	8
 4160 0153 88       		.byte	-120
 4161 0154 88       		.byte	-120
 4162 0155 08       		.byte	8
 4163 0156 08       		.byte	8
 4164 0157 00       		.byte	0
 4165 0158 00       		.byte	0
 4166 0159 19       		.byte	25
 4167 015a 21       		.byte	33
 4168 015b 20       		.byte	32
 4169 015c 20       		.byte	32
 4170 015d 11       		.byte	17
 4171 015e 0E       		.byte	14
 4172 015f 00       		.byte	0
 4173 0160 00       		.byte	0
 4174 0161 E0       		.byte	-32
 4175 0162 10       		.byte	16
 4176 0163 88       		.byte	-120
 4177 0164 88       		.byte	-120
 4178 0165 18       		.byte	24
 4179 0166 00       		.byte	0
 4180 0167 00       		.byte	0
 4181 0168 00       		.byte	0
 4182 0169 0F       		.byte	15
 4183 016a 11       		.byte	17
 4184 016b 20       		.byte	32
 4185 016c 20       		.byte	32
 4186 016d 11       		.byte	17
 4187 016e 0E       		.byte	14
 4188 016f 00       		.byte	0
 4189 0170 00       		.byte	0
ARM GAS  C:\Users\ADMINI~1\AppData\Local\Temp\cc6xb3Hf.s 			page 88


 4190 0171 38       		.byte	56
 4191 0172 08       		.byte	8
 4192 0173 08       		.byte	8
 4193 0174 C8       		.byte	-56
 4194 0175 38       		.byte	56
 4195 0176 08       		.byte	8
 4196 0177 00       		.byte	0
 4197 0178 00       		.byte	0
 4198 0179 00       		.byte	0
 4199 017a 00       		.byte	0
 4200 017b 3F       		.byte	63
 4201 017c 00       		.byte	0
 4202 017d 00       		.byte	0
 4203 017e 00       		.byte	0
 4204 017f 00       		.byte	0
 4205 0180 00       		.byte	0
 4206 0181 70       		.byte	112
 4207 0182 88       		.byte	-120
 4208 0183 08       		.byte	8
 4209 0184 08       		.byte	8
 4210 0185 88       		.byte	-120
 4211 0186 70       		.byte	112
 4212 0187 00       		.byte	0
 4213 0188 00       		.byte	0
 4214 0189 1C       		.byte	28
 4215 018a 22       		.byte	34
 4216 018b 21       		.byte	33
 4217 018c 21       		.byte	33
 4218 018d 22       		.byte	34
 4219 018e 1C       		.byte	28
 4220 018f 00       		.byte	0
 4221 0190 00       		.byte	0
 4222 0191 E0       		.byte	-32
 4223 0192 10       		.byte	16
 4224 0193 08       		.byte	8
 4225 0194 08       		.byte	8
 4226 0195 10       		.byte	16
 4227 0196 E0       		.byte	-32
 4228 0197 00       		.byte	0
 4229 0198 00       		.byte	0
 4230 0199 00       		.byte	0
 4231 019a 31       		.byte	49
 4232 019b 22       		.byte	34
 4233 019c 22       		.byte	34
 4234 019d 11       		.byte	17
 4235 019e 0F       		.byte	15
 4236 019f 00       		.byte	0
 4237 01a0 00       		.byte	0
 4238 01a1 00       		.byte	0
 4239 01a2 00       		.byte	0
 4240 01a3 C0       		.byte	-64
 4241 01a4 C0       		.byte	-64
 4242 01a5 00       		.byte	0
 4243 01a6 00       		.byte	0
 4244 01a7 00       		.byte	0
 4245 01a8 00       		.byte	0
 4246 01a9 00       		.byte	0
ARM GAS  C:\Users\ADMINI~1\AppData\Local\Temp\cc6xb3Hf.s 			page 89


 4247 01aa 00       		.byte	0
 4248 01ab 30       		.byte	48
 4249 01ac 30       		.byte	48
 4250 01ad 00       		.byte	0
 4251 01ae 00       		.byte	0
 4252 01af 00       		.byte	0
 4253 01b0 00       		.byte	0
 4254 01b1 00       		.byte	0
 4255 01b2 00       		.byte	0
 4256 01b3 80       		.byte	-128
 4257 01b4 00       		.byte	0
 4258 01b5 00       		.byte	0
 4259 01b6 00       		.byte	0
 4260 01b7 00       		.byte	0
 4261 01b8 00       		.byte	0
 4262 01b9 00       		.byte	0
 4263 01ba 80       		.byte	-128
 4264 01bb 60       		.byte	96
 4265 01bc 00       		.byte	0
 4266 01bd 00       		.byte	0
 4267 01be 00       		.byte	0
 4268 01bf 00       		.byte	0
 4269 01c0 00       		.byte	0
 4270 01c1 00       		.byte	0
 4271 01c2 80       		.byte	-128
 4272 01c3 40       		.byte	64
 4273 01c4 20       		.byte	32
 4274 01c5 10       		.byte	16
 4275 01c6 08       		.byte	8
 4276 01c7 00       		.byte	0
 4277 01c8 00       		.byte	0
 4278 01c9 01       		.byte	1
 4279 01ca 02       		.byte	2
 4280 01cb 04       		.byte	4
 4281 01cc 08       		.byte	8
 4282 01cd 10       		.byte	16
 4283 01ce 20       		.byte	32
 4284 01cf 00       		.byte	0
 4285 01d0 40       		.byte	64
 4286 01d1 40       		.byte	64
 4287 01d2 40       		.byte	64
 4288 01d3 40       		.byte	64
 4289 01d4 40       		.byte	64
 4290 01d5 40       		.byte	64
 4291 01d6 40       		.byte	64
 4292 01d7 00       		.byte	0
 4293 01d8 04       		.byte	4
 4294 01d9 04       		.byte	4
 4295 01da 04       		.byte	4
 4296 01db 04       		.byte	4
 4297 01dc 04       		.byte	4
 4298 01dd 04       		.byte	4
 4299 01de 04       		.byte	4
 4300 01df 00       		.byte	0
 4301 01e0 00       		.byte	0
 4302 01e1 08       		.byte	8
 4303 01e2 10       		.byte	16
ARM GAS  C:\Users\ADMINI~1\AppData\Local\Temp\cc6xb3Hf.s 			page 90


 4304 01e3 20       		.byte	32
 4305 01e4 40       		.byte	64
 4306 01e5 80       		.byte	-128
 4307 01e6 00       		.byte	0
 4308 01e7 00       		.byte	0
 4309 01e8 00       		.byte	0
 4310 01e9 20       		.byte	32
 4311 01ea 10       		.byte	16
 4312 01eb 08       		.byte	8
 4313 01ec 04       		.byte	4
 4314 01ed 02       		.byte	2
 4315 01ee 01       		.byte	1
 4316 01ef 00       		.byte	0
 4317 01f0 00       		.byte	0
 4318 01f1 70       		.byte	112
 4319 01f2 48       		.byte	72
 4320 01f3 08       		.byte	8
 4321 01f4 08       		.byte	8
 4322 01f5 08       		.byte	8
 4323 01f6 F0       		.byte	-16
 4324 01f7 00       		.byte	0
 4325 01f8 00       		.byte	0
 4326 01f9 00       		.byte	0
 4327 01fa 00       		.byte	0
 4328 01fb 30       		.byte	48
 4329 01fc 36       		.byte	54
 4330 01fd 01       		.byte	1
 4331 01fe 00       		.byte	0
 4332 01ff 00       		.byte	0
 4333 0200 C0       		.byte	-64
 4334 0201 30       		.byte	48
 4335 0202 C8       		.byte	-56
 4336 0203 28       		.byte	40
 4337 0204 E8       		.byte	-24
 4338 0205 10       		.byte	16
 4339 0206 E0       		.byte	-32
 4340 0207 00       		.byte	0
 4341 0208 07       		.byte	7
 4342 0209 18       		.byte	24
 4343 020a 27       		.byte	39
 4344 020b 24       		.byte	36
 4345 020c 23       		.byte	35
 4346 020d 14       		.byte	20
 4347 020e 0B       		.byte	11
 4348 020f 00       		.byte	0
 4349 0210 00       		.byte	0
 4350 0211 00       		.byte	0
 4351 0212 C0       		.byte	-64
 4352 0213 38       		.byte	56
 4353 0214 E0       		.byte	-32
 4354 0215 00       		.byte	0
 4355 0216 00       		.byte	0
 4356 0217 00       		.byte	0
 4357 0218 20       		.byte	32
 4358 0219 3C       		.byte	60
 4359 021a 23       		.byte	35
 4360 021b 02       		.byte	2
ARM GAS  C:\Users\ADMINI~1\AppData\Local\Temp\cc6xb3Hf.s 			page 91


 4361 021c 02       		.byte	2
 4362 021d 27       		.byte	39
 4363 021e 38       		.byte	56
 4364 021f 20       		.byte	32
 4365 0220 08       		.byte	8
 4366 0221 F8       		.byte	-8
 4367 0222 88       		.byte	-120
 4368 0223 88       		.byte	-120
 4369 0224 88       		.byte	-120
 4370 0225 70       		.byte	112
 4371 0226 00       		.byte	0
 4372 0227 00       		.byte	0
 4373 0228 20       		.byte	32
 4374 0229 3F       		.byte	63
 4375 022a 20       		.byte	32
 4376 022b 20       		.byte	32
 4377 022c 20       		.byte	32
 4378 022d 11       		.byte	17
 4379 022e 0E       		.byte	14
 4380 022f 00       		.byte	0
 4381 0230 C0       		.byte	-64
 4382 0231 30       		.byte	48
 4383 0232 08       		.byte	8
 4384 0233 08       		.byte	8
 4385 0234 08       		.byte	8
 4386 0235 08       		.byte	8
 4387 0236 38       		.byte	56
 4388 0237 00       		.byte	0
 4389 0238 07       		.byte	7
 4390 0239 18       		.byte	24
 4391 023a 20       		.byte	32
 4392 023b 20       		.byte	32
 4393 023c 20       		.byte	32
 4394 023d 10       		.byte	16
 4395 023e 08       		.byte	8
 4396 023f 00       		.byte	0
 4397 0240 08       		.byte	8
 4398 0241 F8       		.byte	-8
 4399 0242 08       		.byte	8
 4400 0243 08       		.byte	8
 4401 0244 08       		.byte	8
 4402 0245 10       		.byte	16
 4403 0246 E0       		.byte	-32
 4404 0247 00       		.byte	0
 4405 0248 20       		.byte	32
 4406 0249 3F       		.byte	63
 4407 024a 20       		.byte	32
 4408 024b 20       		.byte	32
 4409 024c 20       		.byte	32
 4410 024d 10       		.byte	16
 4411 024e 0F       		.byte	15
 4412 024f 00       		.byte	0
 4413 0250 08       		.byte	8
 4414 0251 F8       		.byte	-8
 4415 0252 88       		.byte	-120
 4416 0253 88       		.byte	-120
 4417 0254 E8       		.byte	-24
ARM GAS  C:\Users\ADMINI~1\AppData\Local\Temp\cc6xb3Hf.s 			page 92


 4418 0255 08       		.byte	8
 4419 0256 10       		.byte	16
 4420 0257 00       		.byte	0
 4421 0258 20       		.byte	32
 4422 0259 3F       		.byte	63
 4423 025a 20       		.byte	32
 4424 025b 20       		.byte	32
 4425 025c 23       		.byte	35
 4426 025d 20       		.byte	32
 4427 025e 18       		.byte	24
 4428 025f 00       		.byte	0
 4429 0260 08       		.byte	8
 4430 0261 F8       		.byte	-8
 4431 0262 88       		.byte	-120
 4432 0263 88       		.byte	-120
 4433 0264 E8       		.byte	-24
 4434 0265 08       		.byte	8
 4435 0266 10       		.byte	16
 4436 0267 00       		.byte	0
 4437 0268 20       		.byte	32
 4438 0269 3F       		.byte	63
 4439 026a 20       		.byte	32
 4440 026b 00       		.byte	0
 4441 026c 03       		.byte	3
 4442 026d 00       		.byte	0
 4443 026e 00       		.byte	0
 4444 026f 00       		.byte	0
 4445 0270 C0       		.byte	-64
 4446 0271 30       		.byte	48
 4447 0272 08       		.byte	8
 4448 0273 08       		.byte	8
 4449 0274 08       		.byte	8
 4450 0275 38       		.byte	56
 4451 0276 00       		.byte	0
 4452 0277 00       		.byte	0
 4453 0278 07       		.byte	7
 4454 0279 18       		.byte	24
 4455 027a 20       		.byte	32
 4456 027b 20       		.byte	32
 4457 027c 22       		.byte	34
 4458 027d 1E       		.byte	30
 4459 027e 02       		.byte	2
 4460 027f 00       		.byte	0
 4461 0280 08       		.byte	8
 4462 0281 F8       		.byte	-8
 4463 0282 08       		.byte	8
 4464 0283 00       		.byte	0
 4465 0284 00       		.byte	0
 4466 0285 08       		.byte	8
 4467 0286 F8       		.byte	-8
 4468 0287 08       		.byte	8
 4469 0288 20       		.byte	32
 4470 0289 3F       		.byte	63
 4471 028a 21       		.byte	33
 4472 028b 01       		.byte	1
 4473 028c 01       		.byte	1
 4474 028d 21       		.byte	33
ARM GAS  C:\Users\ADMINI~1\AppData\Local\Temp\cc6xb3Hf.s 			page 93


 4475 028e 3F       		.byte	63
 4476 028f 20       		.byte	32
 4477 0290 00       		.byte	0
 4478 0291 08       		.byte	8
 4479 0292 08       		.byte	8
 4480 0293 F8       		.byte	-8
 4481 0294 08       		.byte	8
 4482 0295 08       		.byte	8
 4483 0296 00       		.byte	0
 4484 0297 00       		.byte	0
 4485 0298 00       		.byte	0
 4486 0299 20       		.byte	32
 4487 029a 20       		.byte	32
 4488 029b 3F       		.byte	63
 4489 029c 20       		.byte	32
 4490 029d 20       		.byte	32
 4491 029e 00       		.byte	0
 4492 029f 00       		.byte	0
 4493 02a0 00       		.byte	0
 4494 02a1 00       		.byte	0
 4495 02a2 08       		.byte	8
 4496 02a3 08       		.byte	8
 4497 02a4 F8       		.byte	-8
 4498 02a5 08       		.byte	8
 4499 02a6 08       		.byte	8
 4500 02a7 00       		.byte	0
 4501 02a8 C0       		.byte	-64
 4502 02a9 80       		.byte	-128
 4503 02aa 80       		.byte	-128
 4504 02ab 80       		.byte	-128
 4505 02ac 7F       		.byte	127
 4506 02ad 00       		.byte	0
 4507 02ae 00       		.byte	0
 4508 02af 00       		.byte	0
 4509 02b0 08       		.byte	8
 4510 02b1 F8       		.byte	-8
 4511 02b2 88       		.byte	-120
 4512 02b3 C0       		.byte	-64
 4513 02b4 28       		.byte	40
 4514 02b5 18       		.byte	24
 4515 02b6 08       		.byte	8
 4516 02b7 00       		.byte	0
 4517 02b8 20       		.byte	32
 4518 02b9 3F       		.byte	63
 4519 02ba 20       		.byte	32
 4520 02bb 01       		.byte	1
 4521 02bc 26       		.byte	38
 4522 02bd 38       		.byte	56
 4523 02be 20       		.byte	32
 4524 02bf 00       		.byte	0
 4525 02c0 08       		.byte	8
 4526 02c1 F8       		.byte	-8
 4527 02c2 08       		.byte	8
 4528 02c3 00       		.byte	0
 4529 02c4 00       		.byte	0
 4530 02c5 00       		.byte	0
 4531 02c6 00       		.byte	0
ARM GAS  C:\Users\ADMINI~1\AppData\Local\Temp\cc6xb3Hf.s 			page 94


 4532 02c7 00       		.byte	0
 4533 02c8 20       		.byte	32
 4534 02c9 3F       		.byte	63
 4535 02ca 20       		.byte	32
 4536 02cb 20       		.byte	32
 4537 02cc 20       		.byte	32
 4538 02cd 20       		.byte	32
 4539 02ce 30       		.byte	48
 4540 02cf 00       		.byte	0
 4541 02d0 08       		.byte	8
 4542 02d1 F8       		.byte	-8
 4543 02d2 F8       		.byte	-8
 4544 02d3 00       		.byte	0
 4545 02d4 F8       		.byte	-8
 4546 02d5 F8       		.byte	-8
 4547 02d6 08       		.byte	8
 4548 02d7 00       		.byte	0
 4549 02d8 20       		.byte	32
 4550 02d9 3F       		.byte	63
 4551 02da 00       		.byte	0
 4552 02db 3F       		.byte	63
 4553 02dc 00       		.byte	0
 4554 02dd 3F       		.byte	63
 4555 02de 20       		.byte	32
 4556 02df 00       		.byte	0
 4557 02e0 08       		.byte	8
 4558 02e1 F8       		.byte	-8
 4559 02e2 30       		.byte	48
 4560 02e3 C0       		.byte	-64
 4561 02e4 00       		.byte	0
 4562 02e5 08       		.byte	8
 4563 02e6 F8       		.byte	-8
 4564 02e7 08       		.byte	8
 4565 02e8 20       		.byte	32
 4566 02e9 3F       		.byte	63
 4567 02ea 20       		.byte	32
 4568 02eb 00       		.byte	0
 4569 02ec 07       		.byte	7
 4570 02ed 18       		.byte	24
 4571 02ee 3F       		.byte	63
 4572 02ef 00       		.byte	0
 4573 02f0 E0       		.byte	-32
 4574 02f1 10       		.byte	16
 4575 02f2 08       		.byte	8
 4576 02f3 08       		.byte	8
 4577 02f4 08       		.byte	8
 4578 02f5 10       		.byte	16
 4579 02f6 E0       		.byte	-32
 4580 02f7 00       		.byte	0
 4581 02f8 0F       		.byte	15
 4582 02f9 10       		.byte	16
 4583 02fa 20       		.byte	32
 4584 02fb 20       		.byte	32
 4585 02fc 20       		.byte	32
 4586 02fd 10       		.byte	16
 4587 02fe 0F       		.byte	15
 4588 02ff 00       		.byte	0
ARM GAS  C:\Users\ADMINI~1\AppData\Local\Temp\cc6xb3Hf.s 			page 95


 4589 0300 08       		.byte	8
 4590 0301 F8       		.byte	-8
 4591 0302 08       		.byte	8
 4592 0303 08       		.byte	8
 4593 0304 08       		.byte	8
 4594 0305 08       		.byte	8
 4595 0306 F0       		.byte	-16
 4596 0307 00       		.byte	0
 4597 0308 20       		.byte	32
 4598 0309 3F       		.byte	63
 4599 030a 21       		.byte	33
 4600 030b 01       		.byte	1
 4601 030c 01       		.byte	1
 4602 030d 01       		.byte	1
 4603 030e 00       		.byte	0
 4604 030f 00       		.byte	0
 4605 0310 E0       		.byte	-32
 4606 0311 10       		.byte	16
 4607 0312 08       		.byte	8
 4608 0313 08       		.byte	8
 4609 0314 08       		.byte	8
 4610 0315 10       		.byte	16
 4611 0316 E0       		.byte	-32
 4612 0317 00       		.byte	0
 4613 0318 0F       		.byte	15
 4614 0319 18       		.byte	24
 4615 031a 24       		.byte	36
 4616 031b 24       		.byte	36
 4617 031c 38       		.byte	56
 4618 031d 50       		.byte	80
 4619 031e 4F       		.byte	79
 4620 031f 00       		.byte	0
 4621 0320 08       		.byte	8
 4622 0321 F8       		.byte	-8
 4623 0322 88       		.byte	-120
 4624 0323 88       		.byte	-120
 4625 0324 88       		.byte	-120
 4626 0325 88       		.byte	-120
 4627 0326 70       		.byte	112
 4628 0327 00       		.byte	0
 4629 0328 20       		.byte	32
 4630 0329 3F       		.byte	63
 4631 032a 20       		.byte	32
 4632 032b 00       		.byte	0
 4633 032c 03       		.byte	3
 4634 032d 0C       		.byte	12
 4635 032e 30       		.byte	48
 4636 032f 20       		.byte	32
 4637 0330 00       		.byte	0
 4638 0331 70       		.byte	112
 4639 0332 88       		.byte	-120
 4640 0333 08       		.byte	8
 4641 0334 08       		.byte	8
 4642 0335 08       		.byte	8
 4643 0336 38       		.byte	56
 4644 0337 00       		.byte	0
 4645 0338 00       		.byte	0
ARM GAS  C:\Users\ADMINI~1\AppData\Local\Temp\cc6xb3Hf.s 			page 96


 4646 0339 38       		.byte	56
 4647 033a 20       		.byte	32
 4648 033b 21       		.byte	33
 4649 033c 21       		.byte	33
 4650 033d 22       		.byte	34
 4651 033e 1C       		.byte	28
 4652 033f 00       		.byte	0
 4653 0340 18       		.byte	24
 4654 0341 08       		.byte	8
 4655 0342 08       		.byte	8
 4656 0343 F8       		.byte	-8
 4657 0344 08       		.byte	8
 4658 0345 08       		.byte	8
 4659 0346 18       		.byte	24
 4660 0347 00       		.byte	0
 4661 0348 00       		.byte	0
 4662 0349 00       		.byte	0
 4663 034a 20       		.byte	32
 4664 034b 3F       		.byte	63
 4665 034c 20       		.byte	32
 4666 034d 00       		.byte	0
 4667 034e 00       		.byte	0
 4668 034f 00       		.byte	0
 4669 0350 08       		.byte	8
 4670 0351 F8       		.byte	-8
 4671 0352 08       		.byte	8
 4672 0353 00       		.byte	0
 4673 0354 00       		.byte	0
 4674 0355 08       		.byte	8
 4675 0356 F8       		.byte	-8
 4676 0357 08       		.byte	8
 4677 0358 00       		.byte	0
 4678 0359 1F       		.byte	31
 4679 035a 20       		.byte	32
 4680 035b 20       		.byte	32
 4681 035c 20       		.byte	32
 4682 035d 20       		.byte	32
 4683 035e 1F       		.byte	31
 4684 035f 00       		.byte	0
 4685 0360 08       		.byte	8
 4686 0361 78       		.byte	120
 4687 0362 88       		.byte	-120
 4688 0363 00       		.byte	0
 4689 0364 00       		.byte	0
 4690 0365 C8       		.byte	-56
 4691 0366 38       		.byte	56
 4692 0367 08       		.byte	8
 4693 0368 00       		.byte	0
 4694 0369 00       		.byte	0
 4695 036a 07       		.byte	7
 4696 036b 38       		.byte	56
 4697 036c 0E       		.byte	14
 4698 036d 01       		.byte	1
 4699 036e 00       		.byte	0
 4700 036f 00       		.byte	0
 4701 0370 F8       		.byte	-8
 4702 0371 08       		.byte	8
ARM GAS  C:\Users\ADMINI~1\AppData\Local\Temp\cc6xb3Hf.s 			page 97


 4703 0372 00       		.byte	0
 4704 0373 F8       		.byte	-8
 4705 0374 00       		.byte	0
 4706 0375 08       		.byte	8
 4707 0376 F8       		.byte	-8
 4708 0377 00       		.byte	0
 4709 0378 03       		.byte	3
 4710 0379 3C       		.byte	60
 4711 037a 07       		.byte	7
 4712 037b 00       		.byte	0
 4713 037c 07       		.byte	7
 4714 037d 3C       		.byte	60
 4715 037e 03       		.byte	3
 4716 037f 00       		.byte	0
 4717 0380 08       		.byte	8
 4718 0381 18       		.byte	24
 4719 0382 68       		.byte	104
 4720 0383 80       		.byte	-128
 4721 0384 80       		.byte	-128
 4722 0385 68       		.byte	104
 4723 0386 18       		.byte	24
 4724 0387 08       		.byte	8
 4725 0388 20       		.byte	32
 4726 0389 30       		.byte	48
 4727 038a 2C       		.byte	44
 4728 038b 03       		.byte	3
 4729 038c 03       		.byte	3
 4730 038d 2C       		.byte	44
 4731 038e 30       		.byte	48
 4732 038f 20       		.byte	32
 4733 0390 08       		.byte	8
 4734 0391 38       		.byte	56
 4735 0392 C8       		.byte	-56
 4736 0393 00       		.byte	0
 4737 0394 C8       		.byte	-56
 4738 0395 38       		.byte	56
 4739 0396 08       		.byte	8
 4740 0397 00       		.byte	0
 4741 0398 00       		.byte	0
 4742 0399 00       		.byte	0
 4743 039a 20       		.byte	32
 4744 039b 3F       		.byte	63
 4745 039c 20       		.byte	32
 4746 039d 00       		.byte	0
 4747 039e 00       		.byte	0
 4748 039f 00       		.byte	0
 4749 03a0 10       		.byte	16
 4750 03a1 08       		.byte	8
 4751 03a2 08       		.byte	8
 4752 03a3 08       		.byte	8
 4753 03a4 C8       		.byte	-56
 4754 03a5 38       		.byte	56
 4755 03a6 08       		.byte	8
 4756 03a7 00       		.byte	0
 4757 03a8 20       		.byte	32
 4758 03a9 38       		.byte	56
 4759 03aa 26       		.byte	38
ARM GAS  C:\Users\ADMINI~1\AppData\Local\Temp\cc6xb3Hf.s 			page 98


 4760 03ab 21       		.byte	33
 4761 03ac 20       		.byte	32
 4762 03ad 20       		.byte	32
 4763 03ae 18       		.byte	24
 4764 03af 00       		.byte	0
 4765 03b0 00       		.byte	0
 4766 03b1 00       		.byte	0
 4767 03b2 00       		.byte	0
 4768 03b3 FE       		.byte	-2
 4769 03b4 02       		.byte	2
 4770 03b5 02       		.byte	2
 4771 03b6 02       		.byte	2
 4772 03b7 00       		.byte	0
 4773 03b8 00       		.byte	0
 4774 03b9 00       		.byte	0
 4775 03ba 00       		.byte	0
 4776 03bb 7F       		.byte	127
 4777 03bc 40       		.byte	64
 4778 03bd 40       		.byte	64
 4779 03be 40       		.byte	64
 4780 03bf 00       		.byte	0
 4781 03c0 00       		.byte	0
 4782 03c1 0C       		.byte	12
 4783 03c2 30       		.byte	48
 4784 03c3 C0       		.byte	-64
 4785 03c4 00       		.byte	0
 4786 03c5 00       		.byte	0
 4787 03c6 00       		.byte	0
 4788 03c7 00       		.byte	0
 4789 03c8 00       		.byte	0
 4790 03c9 00       		.byte	0
 4791 03ca 00       		.byte	0
 4792 03cb 01       		.byte	1
 4793 03cc 06       		.byte	6
 4794 03cd 38       		.byte	56
 4795 03ce C0       		.byte	-64
 4796 03cf 00       		.byte	0
 4797 03d0 00       		.byte	0
 4798 03d1 02       		.byte	2
 4799 03d2 02       		.byte	2
 4800 03d3 02       		.byte	2
 4801 03d4 FE       		.byte	-2
 4802 03d5 00       		.byte	0
 4803 03d6 00       		.byte	0
 4804 03d7 00       		.byte	0
 4805 03d8 00       		.byte	0
 4806 03d9 40       		.byte	64
 4807 03da 40       		.byte	64
 4808 03db 40       		.byte	64
 4809 03dc 7F       		.byte	127
 4810 03dd 00       		.byte	0
 4811 03de 00       		.byte	0
 4812 03df 00       		.byte	0
 4813 03e0 00       		.byte	0
 4814 03e1 00       		.byte	0
 4815 03e2 04       		.byte	4
 4816 03e3 02       		.byte	2
ARM GAS  C:\Users\ADMINI~1\AppData\Local\Temp\cc6xb3Hf.s 			page 99


 4817 03e4 02       		.byte	2
 4818 03e5 02       		.byte	2
 4819 03e6 04       		.byte	4
 4820 03e7 00       		.byte	0
 4821 03e8 00       		.byte	0
 4822 03e9 00       		.byte	0
 4823 03ea 00       		.byte	0
 4824 03eb 00       		.byte	0
 4825 03ec 00       		.byte	0
 4826 03ed 00       		.byte	0
 4827 03ee 00       		.byte	0
 4828 03ef 00       		.byte	0
 4829 03f0 00       		.byte	0
 4830 03f1 00       		.byte	0
 4831 03f2 00       		.byte	0
 4832 03f3 00       		.byte	0
 4833 03f4 00       		.byte	0
 4834 03f5 00       		.byte	0
 4835 03f6 00       		.byte	0
 4836 03f7 00       		.byte	0
 4837 03f8 80       		.byte	-128
 4838 03f9 80       		.byte	-128
 4839 03fa 80       		.byte	-128
 4840 03fb 80       		.byte	-128
 4841 03fc 80       		.byte	-128
 4842 03fd 80       		.byte	-128
 4843 03fe 80       		.byte	-128
 4844 03ff 80       		.byte	-128
 4845 0400 00       		.byte	0
 4846 0401 02       		.byte	2
 4847 0402 02       		.byte	2
 4848 0403 04       		.byte	4
 4849 0404 00       		.byte	0
 4850 0405 00       		.byte	0
 4851 0406 00       		.byte	0
 4852 0407 00       		.byte	0
 4853 0408 00       		.byte	0
 4854 0409 00       		.byte	0
 4855 040a 00       		.byte	0
 4856 040b 00       		.byte	0
 4857 040c 00       		.byte	0
 4858 040d 00       		.byte	0
 4859 040e 00       		.byte	0
 4860 040f 00       		.byte	0
 4861 0410 00       		.byte	0
 4862 0411 00       		.byte	0
 4863 0412 80       		.byte	-128
 4864 0413 80       		.byte	-128
 4865 0414 80       		.byte	-128
 4866 0415 80       		.byte	-128
 4867 0416 00       		.byte	0
 4868 0417 00       		.byte	0
 4869 0418 00       		.byte	0
 4870 0419 19       		.byte	25
 4871 041a 24       		.byte	36
 4872 041b 22       		.byte	34
 4873 041c 22       		.byte	34
ARM GAS  C:\Users\ADMINI~1\AppData\Local\Temp\cc6xb3Hf.s 			page 100


 4874 041d 22       		.byte	34
 4875 041e 3F       		.byte	63
 4876 041f 20       		.byte	32
 4877 0420 08       		.byte	8
 4878 0421 F8       		.byte	-8
 4879 0422 00       		.byte	0
 4880 0423 80       		.byte	-128
 4881 0424 80       		.byte	-128
 4882 0425 00       		.byte	0
 4883 0426 00       		.byte	0
 4884 0427 00       		.byte	0
 4885 0428 00       		.byte	0
 4886 0429 3F       		.byte	63
 4887 042a 11       		.byte	17
 4888 042b 20       		.byte	32
 4889 042c 20       		.byte	32
 4890 042d 11       		.byte	17
 4891 042e 0E       		.byte	14
 4892 042f 00       		.byte	0
 4893 0430 00       		.byte	0
 4894 0431 00       		.byte	0
 4895 0432 00       		.byte	0
 4896 0433 80       		.byte	-128
 4897 0434 80       		.byte	-128
 4898 0435 80       		.byte	-128
 4899 0436 00       		.byte	0
 4900 0437 00       		.byte	0
 4901 0438 00       		.byte	0
 4902 0439 0E       		.byte	14
 4903 043a 11       		.byte	17
 4904 043b 20       		.byte	32
 4905 043c 20       		.byte	32
 4906 043d 20       		.byte	32
 4907 043e 11       		.byte	17
 4908 043f 00       		.byte	0
 4909 0440 00       		.byte	0
 4910 0441 00       		.byte	0
 4911 0442 00       		.byte	0
 4912 0443 80       		.byte	-128
 4913 0444 80       		.byte	-128
 4914 0445 88       		.byte	-120
 4915 0446 F8       		.byte	-8
 4916 0447 00       		.byte	0
 4917 0448 00       		.byte	0
 4918 0449 0E       		.byte	14
 4919 044a 11       		.byte	17
 4920 044b 20       		.byte	32
 4921 044c 20       		.byte	32
 4922 044d 10       		.byte	16
 4923 044e 3F       		.byte	63
 4924 044f 20       		.byte	32
 4925 0450 00       		.byte	0
 4926 0451 00       		.byte	0
 4927 0452 80       		.byte	-128
 4928 0453 80       		.byte	-128
 4929 0454 80       		.byte	-128
 4930 0455 80       		.byte	-128
ARM GAS  C:\Users\ADMINI~1\AppData\Local\Temp\cc6xb3Hf.s 			page 101


 4931 0456 00       		.byte	0
 4932 0457 00       		.byte	0
 4933 0458 00       		.byte	0
 4934 0459 1F       		.byte	31
 4935 045a 22       		.byte	34
 4936 045b 22       		.byte	34
 4937 045c 22       		.byte	34
 4938 045d 22       		.byte	34
 4939 045e 13       		.byte	19
 4940 045f 00       		.byte	0
 4941 0460 00       		.byte	0
 4942 0461 80       		.byte	-128
 4943 0462 80       		.byte	-128
 4944 0463 F0       		.byte	-16
 4945 0464 88       		.byte	-120
 4946 0465 88       		.byte	-120
 4947 0466 88       		.byte	-120
 4948 0467 18       		.byte	24
 4949 0468 00       		.byte	0
 4950 0469 20       		.byte	32
 4951 046a 20       		.byte	32
 4952 046b 3F       		.byte	63
 4953 046c 20       		.byte	32
 4954 046d 20       		.byte	32
 4955 046e 00       		.byte	0
 4956 046f 00       		.byte	0
 4957 0470 00       		.byte	0
 4958 0471 00       		.byte	0
 4959 0472 80       		.byte	-128
 4960 0473 80       		.byte	-128
 4961 0474 80       		.byte	-128
 4962 0475 80       		.byte	-128
 4963 0476 80       		.byte	-128
 4964 0477 00       		.byte	0
 4965 0478 00       		.byte	0
 4966 0479 6B       		.byte	107
 4967 047a 94       		.byte	-108
 4968 047b 94       		.byte	-108
 4969 047c 94       		.byte	-108
 4970 047d 93       		.byte	-109
 4971 047e 60       		.byte	96
 4972 047f 00       		.byte	0
 4973 0480 08       		.byte	8
 4974 0481 F8       		.byte	-8
 4975 0482 00       		.byte	0
 4976 0483 80       		.byte	-128
 4977 0484 80       		.byte	-128
 4978 0485 80       		.byte	-128
 4979 0486 00       		.byte	0
 4980 0487 00       		.byte	0
 4981 0488 20       		.byte	32
 4982 0489 3F       		.byte	63
 4983 048a 21       		.byte	33
 4984 048b 00       		.byte	0
 4985 048c 00       		.byte	0
 4986 048d 20       		.byte	32
 4987 048e 3F       		.byte	63
ARM GAS  C:\Users\ADMINI~1\AppData\Local\Temp\cc6xb3Hf.s 			page 102


 4988 048f 20       		.byte	32
 4989 0490 00       		.byte	0
 4990 0491 80       		.byte	-128
 4991 0492 98       		.byte	-104
 4992 0493 98       		.byte	-104
 4993 0494 00       		.byte	0
 4994 0495 00       		.byte	0
 4995 0496 00       		.byte	0
 4996 0497 00       		.byte	0
 4997 0498 00       		.byte	0
 4998 0499 20       		.byte	32
 4999 049a 20       		.byte	32
 5000 049b 3F       		.byte	63
 5001 049c 20       		.byte	32
 5002 049d 20       		.byte	32
 5003 049e 00       		.byte	0
 5004 049f 00       		.byte	0
 5005 04a0 00       		.byte	0
 5006 04a1 00       		.byte	0
 5007 04a2 00       		.byte	0
 5008 04a3 80       		.byte	-128
 5009 04a4 98       		.byte	-104
 5010 04a5 98       		.byte	-104
 5011 04a6 00       		.byte	0
 5012 04a7 00       		.byte	0
 5013 04a8 00       		.byte	0
 5014 04a9 C0       		.byte	-64
 5015 04aa 80       		.byte	-128
 5016 04ab 80       		.byte	-128
 5017 04ac 80       		.byte	-128
 5018 04ad 7F       		.byte	127
 5019 04ae 00       		.byte	0
 5020 04af 00       		.byte	0
 5021 04b0 08       		.byte	8
 5022 04b1 F8       		.byte	-8
 5023 04b2 00       		.byte	0
 5024 04b3 00       		.byte	0
 5025 04b4 80       		.byte	-128
 5026 04b5 80       		.byte	-128
 5027 04b6 80       		.byte	-128
 5028 04b7 00       		.byte	0
 5029 04b8 20       		.byte	32
 5030 04b9 3F       		.byte	63
 5031 04ba 24       		.byte	36
 5032 04bb 02       		.byte	2
 5033 04bc 2D       		.byte	45
 5034 04bd 30       		.byte	48
 5035 04be 20       		.byte	32
 5036 04bf 00       		.byte	0
 5037 04c0 00       		.byte	0
 5038 04c1 08       		.byte	8
 5039 04c2 08       		.byte	8
 5040 04c3 F8       		.byte	-8
 5041 04c4 00       		.byte	0
 5042 04c5 00       		.byte	0
 5043 04c6 00       		.byte	0
 5044 04c7 00       		.byte	0
ARM GAS  C:\Users\ADMINI~1\AppData\Local\Temp\cc6xb3Hf.s 			page 103


 5045 04c8 00       		.byte	0
 5046 04c9 20       		.byte	32
 5047 04ca 20       		.byte	32
 5048 04cb 3F       		.byte	63
 5049 04cc 20       		.byte	32
 5050 04cd 20       		.byte	32
 5051 04ce 00       		.byte	0
 5052 04cf 00       		.byte	0
 5053 04d0 80       		.byte	-128
 5054 04d1 80       		.byte	-128
 5055 04d2 80       		.byte	-128
 5056 04d3 80       		.byte	-128
 5057 04d4 80       		.byte	-128
 5058 04d5 80       		.byte	-128
 5059 04d6 80       		.byte	-128
 5060 04d7 00       		.byte	0
 5061 04d8 20       		.byte	32
 5062 04d9 3F       		.byte	63
 5063 04da 20       		.byte	32
 5064 04db 00       		.byte	0
 5065 04dc 3F       		.byte	63
 5066 04dd 20       		.byte	32
 5067 04de 00       		.byte	0
 5068 04df 3F       		.byte	63
 5069 04e0 80       		.byte	-128
 5070 04e1 80       		.byte	-128
 5071 04e2 00       		.byte	0
 5072 04e3 80       		.byte	-128
 5073 04e4 80       		.byte	-128
 5074 04e5 80       		.byte	-128
 5075 04e6 00       		.byte	0
 5076 04e7 00       		.byte	0
 5077 04e8 20       		.byte	32
 5078 04e9 3F       		.byte	63
 5079 04ea 21       		.byte	33
 5080 04eb 00       		.byte	0
 5081 04ec 00       		.byte	0
 5082 04ed 20       		.byte	32
 5083 04ee 3F       		.byte	63
 5084 04ef 20       		.byte	32
 5085 04f0 00       		.byte	0
 5086 04f1 00       		.byte	0
 5087 04f2 80       		.byte	-128
 5088 04f3 80       		.byte	-128
 5089 04f4 80       		.byte	-128
 5090 04f5 80       		.byte	-128
 5091 04f6 00       		.byte	0
 5092 04f7 00       		.byte	0
 5093 04f8 00       		.byte	0
 5094 04f9 1F       		.byte	31
 5095 04fa 20       		.byte	32
 5096 04fb 20       		.byte	32
 5097 04fc 20       		.byte	32
 5098 04fd 20       		.byte	32
 5099 04fe 1F       		.byte	31
 5100 04ff 00       		.byte	0
 5101 0500 80       		.byte	-128
ARM GAS  C:\Users\ADMINI~1\AppData\Local\Temp\cc6xb3Hf.s 			page 104


 5102 0501 80       		.byte	-128
 5103 0502 00       		.byte	0
 5104 0503 80       		.byte	-128
 5105 0504 80       		.byte	-128
 5106 0505 00       		.byte	0
 5107 0506 00       		.byte	0
 5108 0507 00       		.byte	0
 5109 0508 80       		.byte	-128
 5110 0509 FF       		.byte	-1
 5111 050a A1       		.byte	-95
 5112 050b 20       		.byte	32
 5113 050c 20       		.byte	32
 5114 050d 11       		.byte	17
 5115 050e 0E       		.byte	14
 5116 050f 00       		.byte	0
 5117 0510 00       		.byte	0
 5118 0511 00       		.byte	0
 5119 0512 00       		.byte	0
 5120 0513 80       		.byte	-128
 5121 0514 80       		.byte	-128
 5122 0515 80       		.byte	-128
 5123 0516 80       		.byte	-128
 5124 0517 00       		.byte	0
 5125 0518 00       		.byte	0
 5126 0519 0E       		.byte	14
 5127 051a 11       		.byte	17
 5128 051b 20       		.byte	32
 5129 051c 20       		.byte	32
 5130 051d A0       		.byte	-96
 5131 051e FF       		.byte	-1
 5132 051f 80       		.byte	-128
 5133 0520 80       		.byte	-128
 5134 0521 80       		.byte	-128
 5135 0522 80       		.byte	-128
 5136 0523 00       		.byte	0
 5137 0524 80       		.byte	-128
 5138 0525 80       		.byte	-128
 5139 0526 80       		.byte	-128
 5140 0527 00       		.byte	0
 5141 0528 20       		.byte	32
 5142 0529 20       		.byte	32
 5143 052a 3F       		.byte	63
 5144 052b 21       		.byte	33
 5145 052c 20       		.byte	32
 5146 052d 00       		.byte	0
 5147 052e 01       		.byte	1
 5148 052f 00       		.byte	0
 5149 0530 00       		.byte	0
 5150 0531 00       		.byte	0
 5151 0532 80       		.byte	-128
 5152 0533 80       		.byte	-128
 5153 0534 80       		.byte	-128
 5154 0535 80       		.byte	-128
 5155 0536 80       		.byte	-128
 5156 0537 00       		.byte	0
 5157 0538 00       		.byte	0
 5158 0539 33       		.byte	51
ARM GAS  C:\Users\ADMINI~1\AppData\Local\Temp\cc6xb3Hf.s 			page 105


 5159 053a 24       		.byte	36
 5160 053b 24       		.byte	36
 5161 053c 24       		.byte	36
 5162 053d 24       		.byte	36
 5163 053e 19       		.byte	25
 5164 053f 00       		.byte	0
 5165 0540 00       		.byte	0
 5166 0541 80       		.byte	-128
 5167 0542 80       		.byte	-128
 5168 0543 E0       		.byte	-32
 5169 0544 80       		.byte	-128
 5170 0545 80       		.byte	-128
 5171 0546 00       		.byte	0
 5172 0547 00       		.byte	0
 5173 0548 00       		.byte	0
 5174 0549 00       		.byte	0
 5175 054a 00       		.byte	0
 5176 054b 1F       		.byte	31
 5177 054c 20       		.byte	32
 5178 054d 20       		.byte	32
 5179 054e 00       		.byte	0
 5180 054f 00       		.byte	0
 5181 0550 80       		.byte	-128
 5182 0551 80       		.byte	-128
 5183 0552 00       		.byte	0
 5184 0553 00       		.byte	0
 5185 0554 00       		.byte	0
 5186 0555 80       		.byte	-128
 5187 0556 80       		.byte	-128
 5188 0557 00       		.byte	0
 5189 0558 00       		.byte	0
 5190 0559 1F       		.byte	31
 5191 055a 20       		.byte	32
 5192 055b 20       		.byte	32
 5193 055c 20       		.byte	32
 5194 055d 10       		.byte	16
 5195 055e 3F       		.byte	63
 5196 055f 20       		.byte	32
 5197 0560 80       		.byte	-128
 5198 0561 80       		.byte	-128
 5199 0562 80       		.byte	-128
 5200 0563 00       		.byte	0
 5201 0564 00       		.byte	0
 5202 0565 80       		.byte	-128
 5203 0566 80       		.byte	-128
 5204 0567 80       		.byte	-128
 5205 0568 00       		.byte	0
 5206 0569 01       		.byte	1
 5207 056a 0E       		.byte	14
 5208 056b 30       		.byte	48
 5209 056c 08       		.byte	8
 5210 056d 06       		.byte	6
 5211 056e 01       		.byte	1
 5212 056f 00       		.byte	0
 5213 0570 80       		.byte	-128
 5214 0571 80       		.byte	-128
 5215 0572 00       		.byte	0
ARM GAS  C:\Users\ADMINI~1\AppData\Local\Temp\cc6xb3Hf.s 			page 106


 5216 0573 80       		.byte	-128
 5217 0574 00       		.byte	0
 5218 0575 80       		.byte	-128
 5219 0576 80       		.byte	-128
 5220 0577 80       		.byte	-128
 5221 0578 0F       		.byte	15
 5222 0579 30       		.byte	48
 5223 057a 0C       		.byte	12
 5224 057b 03       		.byte	3
 5225 057c 0C       		.byte	12
 5226 057d 30       		.byte	48
 5227 057e 0F       		.byte	15
 5228 057f 00       		.byte	0
 5229 0580 00       		.byte	0
 5230 0581 80       		.byte	-128
 5231 0582 80       		.byte	-128
 5232 0583 00       		.byte	0
 5233 0584 80       		.byte	-128
 5234 0585 80       		.byte	-128
 5235 0586 80       		.byte	-128
 5236 0587 00       		.byte	0
 5237 0588 00       		.byte	0
 5238 0589 20       		.byte	32
 5239 058a 31       		.byte	49
 5240 058b 2E       		.byte	46
 5241 058c 0E       		.byte	14
 5242 058d 31       		.byte	49
 5243 058e 20       		.byte	32
 5244 058f 00       		.byte	0
 5245 0590 80       		.byte	-128
 5246 0591 80       		.byte	-128
 5247 0592 80       		.byte	-128
 5248 0593 00       		.byte	0
 5249 0594 00       		.byte	0
 5250 0595 80       		.byte	-128
 5251 0596 80       		.byte	-128
 5252 0597 80       		.byte	-128
 5253 0598 80       		.byte	-128
 5254 0599 81       		.byte	-127
 5255 059a 8E       		.byte	-114
 5256 059b 70       		.byte	112
 5257 059c 18       		.byte	24
 5258 059d 06       		.byte	6
 5259 059e 01       		.byte	1
 5260 059f 00       		.byte	0
 5261 05a0 00       		.byte	0
 5262 05a1 80       		.byte	-128
 5263 05a2 80       		.byte	-128
 5264 05a3 80       		.byte	-128
 5265 05a4 80       		.byte	-128
 5266 05a5 80       		.byte	-128
 5267 05a6 80       		.byte	-128
 5268 05a7 00       		.byte	0
 5269 05a8 00       		.byte	0
 5270 05a9 21       		.byte	33
 5271 05aa 30       		.byte	48
 5272 05ab 2C       		.byte	44
ARM GAS  C:\Users\ADMINI~1\AppData\Local\Temp\cc6xb3Hf.s 			page 107


 5273 05ac 22       		.byte	34
 5274 05ad 21       		.byte	33
 5275 05ae 30       		.byte	48
 5276 05af 00       		.byte	0
 5277 05b0 00       		.byte	0
 5278 05b1 00       		.byte	0
 5279 05b2 00       		.byte	0
 5280 05b3 00       		.byte	0
 5281 05b4 80       		.byte	-128
 5282 05b5 7C       		.byte	124
 5283 05b6 02       		.byte	2
 5284 05b7 02       		.byte	2
 5285 05b8 00       		.byte	0
 5286 05b9 00       		.byte	0
 5287 05ba 00       		.byte	0
 5288 05bb 00       		.byte	0
 5289 05bc 00       		.byte	0
 5290 05bd 3F       		.byte	63
 5291 05be 40       		.byte	64
 5292 05bf 40       		.byte	64
 5293 05c0 00       		.byte	0
 5294 05c1 00       		.byte	0
 5295 05c2 00       		.byte	0
 5296 05c3 00       		.byte	0
 5297 05c4 FF       		.byte	-1
 5298 05c5 00       		.byte	0
 5299 05c6 00       		.byte	0
 5300 05c7 00       		.byte	0
 5301 05c8 00       		.byte	0
 5302 05c9 00       		.byte	0
 5303 05ca 00       		.byte	0
 5304 05cb 00       		.byte	0
 5305 05cc FF       		.byte	-1
 5306 05cd 00       		.byte	0
 5307 05ce 00       		.byte	0
 5308 05cf 00       		.byte	0
 5309 05d0 00       		.byte	0
 5310 05d1 02       		.byte	2
 5311 05d2 02       		.byte	2
 5312 05d3 7C       		.byte	124
 5313 05d4 80       		.byte	-128
 5314 05d5 00       		.byte	0
 5315 05d6 00       		.byte	0
 5316 05d7 00       		.byte	0
 5317 05d8 00       		.byte	0
 5318 05d9 40       		.byte	64
 5319 05da 40       		.byte	64
 5320 05db 3F       		.byte	63
 5321 05dc 00       		.byte	0
 5322 05dd 00       		.byte	0
 5323 05de 00       		.byte	0
 5324 05df 00       		.byte	0
 5325 05e0 00       		.byte	0
 5326 05e1 06       		.byte	6
 5327 05e2 01       		.byte	1
 5328 05e3 01       		.byte	1
 5329 05e4 02       		.byte	2
ARM GAS  C:\Users\ADMINI~1\AppData\Local\Temp\cc6xb3Hf.s 			page 108


 5330 05e5 02       		.byte	2
 5331 05e6 04       		.byte	4
 5332 05e7 04       		.byte	4
 5333 05e8 00       		.byte	0
 5334 05e9 00       		.byte	0
 5335 05ea 00       		.byte	0
 5336 05eb 00       		.byte	0
 5337 05ec 00       		.byte	0
 5338 05ed 00       		.byte	0
 5339 05ee 00       		.byte	0
 5340 05ef 00       		.byte	0
 5341              		.section	.rodata.NumF3x5,"a",%progbits
 5342              		.align	2
 5343              		.set	.LANCHOR10,. + 0
 5346              	NumF3x5:
 5347 0000 1F       		.byte	31
 5348 0001 11       		.byte	17
 5349 0002 1F       		.byte	31
 5350 0003 02       		.byte	2
 5351 0004 1F       		.byte	31
 5352 0005 00       		.byte	0
 5353 0006 1D       		.byte	29
 5354 0007 15       		.byte	21
 5355 0008 17       		.byte	23
 5356 0009 15       		.byte	21
 5357 000a 15       		.byte	21
 5358 000b 1F       		.byte	31
 5359 000c 07       		.byte	7
 5360 000d 04       		.byte	4
 5361 000e 1F       		.byte	31
 5362 000f 17       		.byte	23
 5363 0010 15       		.byte	21
 5364 0011 1D       		.byte	29
 5365 0012 1F       		.byte	31
 5366 0013 15       		.byte	21
 5367 0014 1D       		.byte	29
 5368 0015 03       		.byte	3
 5369 0016 01       		.byte	1
 5370 0017 1F       		.byte	31
 5371 0018 1F       		.byte	31
 5372 0019 15       		.byte	21
 5373 001a 1F       		.byte	31
 5374 001b 17       		.byte	23
 5375 001c 15       		.byte	21
 5376 001d 1F       		.byte	31
 5377 001e 1F       		.byte	31
 5378 001f 05       		.byte	5
 5379 0020 1F       		.byte	31
 5380 0021 1F       		.byte	31
 5381 0022 15       		.byte	21
 5382 0023 1E       		.byte	30
 5383 0024 1F       		.byte	31
 5384 0025 11       		.byte	17
 5385 0026 11       		.byte	17
 5386 0027 1F       		.byte	31
 5387 0028 11       		.byte	17
 5388 0029 0E       		.byte	14
ARM GAS  C:\Users\ADMINI~1\AppData\Local\Temp\cc6xb3Hf.s 			page 109


 5389 002a 1F       		.byte	31
 5390 002b 15       		.byte	21
 5391 002c 15       		.byte	21
 5392 002d 1F       		.byte	31
 5393 002e 05       		.byte	5
 5394 002f 05       		.byte	5
 5395              		.weak	OLED_SPI_Transmit
 5396              		.text
 5397              	.Letext0:
 5398              		.file 2 "c:\\program files (x86)\\gnu tools arm embedded\\7 2017-q4-major\\arm-none-eabi\\include\
 5399              		.file 3 "c:\\program files (x86)\\gnu tools arm embedded\\7 2017-q4-major\\arm-none-eabi\\include\
 5400              		.file 4 "c:\\program files (x86)\\gnu tools arm embedded\\7 2017-q4-major\\arm-none-eabi\\include\
 5401              		.file 5 "c:\\program files (x86)\\gnu tools arm embedded\\7 2017-q4-major\\lib\\gcc\\arm-none-eabi
 5402              		.file 6 "c:\\program files (x86)\\gnu tools arm embedded\\7 2017-q4-major\\arm-none-eabi\\include\
 5403              		.file 7 "c:\\program files (x86)\\gnu tools arm embedded\\7 2017-q4-major\\arm-none-eabi\\include\
 5404              		.file 8 "c:\\program files (x86)\\gnu tools arm embedded\\7 2017-q4-major\\arm-none-eabi\\include\
 5405              		.file 9 "c:\\program files (x86)\\gnu tools arm embedded\\7 2017-q4-major\\arm-none-eabi\\include\
 5406              		.file 10 "Drivers/CMSIS/Include/core_cm3.h"
 5407              		.file 11 "Drivers/CMSIS/Device/ST/STM32F1xx/Include/system_stm32f1xx.h"
 5408              		.file 12 "Drivers/CMSIS/Device/ST/STM32F1xx/Include/stm32f103xb.h"
 5409              		.file 13 "c:\\program files (x86)\\gnu tools arm embedded\\7 2017-q4-major\\arm-none-eabi\\include
 5410              		.file 14 "Drivers/STM32F1xx_HAL_Driver/Inc/stm32f1xx_hal.h"
ARM GAS  C:\Users\ADMINI~1\AppData\Local\Temp\cc6xb3Hf.s 			page 110

